ARM GAS  C:\Users\wuru8\AppData\Local\Temp\cczVuj1W.s 			page 1


   1              		.cpu cortex-m7
   2              		.eabi_attribute 28, 1
   3              		.eabi_attribute 20, 1
   4              		.eabi_attribute 21, 1
   5              		.eabi_attribute 23, 3
   6              		.eabi_attribute 24, 1
   7              		.eabi_attribute 25, 1
   8              		.eabi_attribute 26, 1
   9              		.eabi_attribute 30, 2
  10              		.eabi_attribute 34, 1
  11              		.eabi_attribute 18, 4
  12              		.file	"ExampleProject.cpp"
  13              		.text
  14              	.Ltext0:
  15              		.cfi_sections	.debug_frame
  16              		.section	.text._ZN5daisy9ParameterD2Ev,"axG",%progbits,_ZN5daisy9ParameterD5Ev,comdat
  17              		.align	1
  18              		.p2align 2,,3
  19              		.weak	_ZN5daisy9ParameterD2Ev
  20              		.arch armv7e-m
  21              		.syntax unified
  22              		.thumb
  23              		.thumb_func
  24              		.fpu fpv5-d16
  26              	_ZN5daisy9ParameterD2Ev:
  27              	.LVL0:
  28              	.LFB1654:
  29              		.file 1 "../../libDaisy//src/hid/parameter.h"
   1:../../libDaisy//src/hid/parameter.h **** #pragma once
   2:../../libDaisy//src/hid/parameter.h **** #include <stdint.h>
   3:../../libDaisy//src/hid/parameter.h **** #include "hid/ctrl.h"
   4:../../libDaisy//src/hid/parameter.h **** 
   5:../../libDaisy//src/hid/parameter.h **** namespace daisy
   6:../../libDaisy//src/hid/parameter.h **** {
   7:../../libDaisy//src/hid/parameter.h **** /** @addtogroup controls
   8:../../libDaisy//src/hid/parameter.h ****     @{
   9:../../libDaisy//src/hid/parameter.h **** */
  10:../../libDaisy//src/hid/parameter.h **** 
  11:../../libDaisy//src/hid/parameter.h **** /**      Simple parameter mapping tool that takes a 0-1 input from an hid_ctrl. */
  12:../../libDaisy//src/hid/parameter.h **** class Parameter
  13:../../libDaisy//src/hid/parameter.h **** {
  14:../../libDaisy//src/hid/parameter.h ****   public:
  15:../../libDaisy//src/hid/parameter.h ****     /** Curves are applied to the output signal */
  16:../../libDaisy//src/hid/parameter.h ****     enum Curve
  17:../../libDaisy//src/hid/parameter.h ****     {
  18:../../libDaisy//src/hid/parameter.h ****         LINEAR,      /**< Linear curve */
  19:../../libDaisy//src/hid/parameter.h ****         EXPONENTIAL, /**< Exponential curve */
  20:../../libDaisy//src/hid/parameter.h ****         LOGARITHMIC, /**<  Logarithmic curve */
  21:../../libDaisy//src/hid/parameter.h ****         CUBE,        /**< Cubic curve */
  22:../../libDaisy//src/hid/parameter.h ****         LAST,        /**< Final enum element. */
  23:../../libDaisy//src/hid/parameter.h ****     };
  24:../../libDaisy//src/hid/parameter.h ****     /** Constructor */
  25:../../libDaisy//src/hid/parameter.h ****     Parameter() {}
  26:../../libDaisy//src/hid/parameter.h ****     /** Destructor */
  27:../../libDaisy//src/hid/parameter.h ****     ~Parameter() {}
  30              		.loc 1 27 5 view -0
  31              		.cfi_startproc
ARM GAS  C:\Users\wuru8\AppData\Local\Temp\cczVuj1W.s 			page 2


  32              		@ args = 0, pretend = 0, frame = 0
  33              		@ frame_needed = 0, uses_anonymous_args = 0
  34              		@ link register save eliminated.
  35              	.LBB570:
  36              	.LBI570:
  37              		.file 2 "../../libDaisy//src/hid/ctrl.h"
   1:../../libDaisy//src/hid/ctrl.h **** #pragma once
   2:../../libDaisy//src/hid/ctrl.h **** #ifndef DSY_KNOB_H
   3:../../libDaisy//src/hid/ctrl.h **** #define DSY_KNOB_H /**< & */
   4:../../libDaisy//src/hid/ctrl.h **** #include <stdint.h>
   5:../../libDaisy//src/hid/ctrl.h **** 
   6:../../libDaisy//src/hid/ctrl.h **** #ifdef __cplusplus
   7:../../libDaisy//src/hid/ctrl.h **** namespace daisy
   8:../../libDaisy//src/hid/ctrl.h **** {
   9:../../libDaisy//src/hid/ctrl.h **** /**
  10:../../libDaisy//src/hid/ctrl.h ****     @brief Hardware Interface for control inputs \n 
  11:../../libDaisy//src/hid/ctrl.h ****     Primarily designed for ADC input controls such as \n 
  12:../../libDaisy//src/hid/ctrl.h ****     potentiometers, and control voltage. \n 
  13:../../libDaisy//src/hid/ctrl.h ****     @author Stephen Hensley
  14:../../libDaisy//src/hid/ctrl.h ****     @date November 2019
  15:../../libDaisy//src/hid/ctrl.h ****     @ingroup controls
  16:../../libDaisy//src/hid/ctrl.h **** */
  17:../../libDaisy//src/hid/ctrl.h **** class AnalogControl
  18:../../libDaisy//src/hid/ctrl.h **** {
  19:../../libDaisy//src/hid/ctrl.h ****   public:
  20:../../libDaisy//src/hid/ctrl.h ****     /** Constructor */
  21:../../libDaisy//src/hid/ctrl.h ****     AnalogControl() {}
  22:../../libDaisy//src/hid/ctrl.h ****     /** destructor */
  23:../../libDaisy//src/hid/ctrl.h ****     ~AnalogControl() {}
  38              		.loc 2 23 5 view .LVU1
  39              		.loc 2 23 5 is_stmt 0 view .LVU2
  40              	.LBE570:
  41              		.loc 1 27 19 view .LVU3
  42 0000 7047     		bx	lr
  43              		.cfi_endproc
  44              	.LFE1654:
  46              		.weak	_ZN5daisy9ParameterD1Ev
  47              		.thumb_set _ZN5daisy9ParameterD1Ev,_ZN5daisy9ParameterD2Ev
  48 0002 00BF     		.section	.text._ZN5daisy8DaisyPodD2Ev,"axG",%progbits,_ZN5daisy8DaisyPodD5Ev,comdat
  49              		.align	1
  50              		.p2align 2,,3
  51              		.weak	_ZN5daisy8DaisyPodD2Ev
  52              		.syntax unified
  53              		.thumb
  54              		.thumb_func
  55              		.fpu fpv5-d16
  57              	_ZN5daisy8DaisyPodD2Ev:
  58              	.LVL1:
  59              	.LFB2537:
  60              		.file 3 "../../libDaisy//src/daisy_pod.h"
   1:../../libDaisy//src/daisy_pod.h **** #pragma once
   2:../../libDaisy//src/daisy_pod.h **** #ifndef DSY_POD_BSP_H
   3:../../libDaisy//src/daisy_pod.h **** #define DSY_POD_BSP_H
   4:../../libDaisy//src/daisy_pod.h **** 
   5:../../libDaisy//src/daisy_pod.h **** #include "daisy_seed.h"
   6:../../libDaisy//src/daisy_pod.h **** 
   7:../../libDaisy//src/daisy_pod.h **** namespace daisy
ARM GAS  C:\Users\wuru8\AppData\Local\Temp\cczVuj1W.s 			page 3


   8:../../libDaisy//src/daisy_pod.h **** {
   9:../../libDaisy//src/daisy_pod.h **** /**
  10:../../libDaisy//src/daisy_pod.h ****     @brief Class that handles initializing all of the hardware specific to the Daisy Patch Board. \
  11:../../libDaisy//src/daisy_pod.h ****     Helper funtions are also in place to provide easy access to built-in controls and peripherals.
  12:../../libDaisy//src/daisy_pod.h ****     @author Stephen Hensley
  13:../../libDaisy//src/daisy_pod.h ****     @date November 2019
  14:../../libDaisy//src/daisy_pod.h ****     @ingroup boards
  15:../../libDaisy//src/daisy_pod.h **** */
  16:../../libDaisy//src/daisy_pod.h **** class DaisyPod
  17:../../libDaisy//src/daisy_pod.h **** {
  18:../../libDaisy//src/daisy_pod.h ****   public:
  19:../../libDaisy//src/daisy_pod.h ****     /** Switches */
  20:../../libDaisy//src/daisy_pod.h ****     enum Sw
  21:../../libDaisy//src/daisy_pod.h ****     {
  22:../../libDaisy//src/daisy_pod.h ****         BUTTON_1,    /** & */
  23:../../libDaisy//src/daisy_pod.h ****         BUTTON_2,    /** & */
  24:../../libDaisy//src/daisy_pod.h ****         BUTTON_LAST, /** &  */
  25:../../libDaisy//src/daisy_pod.h ****     };
  26:../../libDaisy//src/daisy_pod.h **** 
  27:../../libDaisy//src/daisy_pod.h ****     /** Knobs */
  28:../../libDaisy//src/daisy_pod.h ****     enum Knob
  29:../../libDaisy//src/daisy_pod.h ****     {
  30:../../libDaisy//src/daisy_pod.h ****         KNOB_1,    /** &  */
  31:../../libDaisy//src/daisy_pod.h ****         KNOB_2,    /** & */
  32:../../libDaisy//src/daisy_pod.h ****         KNOB_LAST, /** & */
  33:../../libDaisy//src/daisy_pod.h ****     };
  34:../../libDaisy//src/daisy_pod.h **** 
  35:../../libDaisy//src/daisy_pod.h ****     DaisyPod() {}
  36:../../libDaisy//src/daisy_pod.h ****     ~DaisyPod() {}
  61              		.loc 3 36 5 is_stmt 1 view -0
  62              		.cfi_startproc
  63              		@ args = 0, pretend = 0, frame = 0
  64              		@ frame_needed = 0, uses_anonymous_args = 0
  65              		@ link register save eliminated.
  66              	.LBB571:
  67              	.LBI571:
  68              		.file 4 "../../libDaisy//src/hid/midi.h"
   1:../../libDaisy//src/hid/midi.h **** #pragma once
   2:../../libDaisy//src/hid/midi.h **** #ifndef DSY_MIDI_H
   3:../../libDaisy//src/hid/midi.h **** #define DSY_MIDI_H
   4:../../libDaisy//src/hid/midi.h **** 
   5:../../libDaisy//src/hid/midi.h **** // TODO: make this adjustable
   6:../../libDaisy//src/hid/midi.h **** #define SYSEX_BUFFER_LEN 128
   7:../../libDaisy//src/hid/midi.h **** 
   8:../../libDaisy//src/hid/midi.h **** #include <stdint.h>
   9:../../libDaisy//src/hid/midi.h **** #include <stdlib.h>
  10:../../libDaisy//src/hid/midi.h **** #include "per/uart.h"
  11:../../libDaisy//src/hid/midi.h **** #include "util/ringbuffer.h"
  12:../../libDaisy//src/hid/midi.h **** #include "hid/MidiEvent.h"
  13:../../libDaisy//src/hid/midi.h **** #include "hid/usb_midi.h"
  14:../../libDaisy//src/hid/midi.h **** #include "sys/system.h"
  15:../../libDaisy//src/hid/midi.h **** 
  16:../../libDaisy//src/hid/midi.h **** namespace daisy
  17:../../libDaisy//src/hid/midi.h **** {
  18:../../libDaisy//src/hid/midi.h **** /** @brief   Transport layer for sending and receiving MIDI data over UART 
  19:../../libDaisy//src/hid/midi.h ****  *  @details This is the mode of communication used for TRS and DIN MIDI
  20:../../libDaisy//src/hid/midi.h ****  *  @ingroup midi
ARM GAS  C:\Users\wuru8\AppData\Local\Temp\cczVuj1W.s 			page 4


  21:../../libDaisy//src/hid/midi.h **** */
  22:../../libDaisy//src/hid/midi.h **** class MidiUartTransport
  23:../../libDaisy//src/hid/midi.h **** {
  24:../../libDaisy//src/hid/midi.h ****   public:
  25:../../libDaisy//src/hid/midi.h ****     MidiUartTransport() {}
  26:../../libDaisy//src/hid/midi.h ****     ~MidiUartTransport() {}
  27:../../libDaisy//src/hid/midi.h **** 
  28:../../libDaisy//src/hid/midi.h ****     struct Config
  29:../../libDaisy//src/hid/midi.h ****     {
  30:../../libDaisy//src/hid/midi.h ****         UartHandler::Config::Peripheral periph;
  31:../../libDaisy//src/hid/midi.h ****         dsy_gpio_pin                    rx;
  32:../../libDaisy//src/hid/midi.h ****         dsy_gpio_pin                    tx;
  33:../../libDaisy//src/hid/midi.h **** 
  34:../../libDaisy//src/hid/midi.h ****         Config()
  35:../../libDaisy//src/hid/midi.h ****         {
  36:../../libDaisy//src/hid/midi.h ****             periph = UartHandler::Config::Peripheral::USART_1;
  37:../../libDaisy//src/hid/midi.h ****             rx     = {DSY_GPIOB, 7};
  38:../../libDaisy//src/hid/midi.h ****             tx     = {DSY_GPIOB, 6};
  39:../../libDaisy//src/hid/midi.h ****         }
  40:../../libDaisy//src/hid/midi.h ****     };
  41:../../libDaisy//src/hid/midi.h **** 
  42:../../libDaisy//src/hid/midi.h ****     inline void Init(Config config)
  43:../../libDaisy//src/hid/midi.h ****     {
  44:../../libDaisy//src/hid/midi.h ****         UartHandler::Config uart_config;
  45:../../libDaisy//src/hid/midi.h **** 
  46:../../libDaisy//src/hid/midi.h ****         //defaults
  47:../../libDaisy//src/hid/midi.h ****         uart_config.baudrate   = 31250;
  48:../../libDaisy//src/hid/midi.h ****         uart_config.stopbits   = UartHandler::Config::StopBits::BITS_1;
  49:../../libDaisy//src/hid/midi.h ****         uart_config.parity     = UartHandler::Config::Parity::NONE;
  50:../../libDaisy//src/hid/midi.h ****         uart_config.mode       = UartHandler::Config::Mode::TX_RX;
  51:../../libDaisy//src/hid/midi.h ****         uart_config.wordlength = UartHandler::Config::WordLength::BITS_8;
  52:../../libDaisy//src/hid/midi.h **** 
  53:../../libDaisy//src/hid/midi.h ****         //user settings
  54:../../libDaisy//src/hid/midi.h ****         uart_config.periph        = config.periph;
  55:../../libDaisy//src/hid/midi.h ****         uart_config.pin_config.rx = config.rx;
  56:../../libDaisy//src/hid/midi.h ****         uart_config.pin_config.tx = config.tx;
  57:../../libDaisy//src/hid/midi.h **** 
  58:../../libDaisy//src/hid/midi.h ****         uart_.Init(uart_config);
  59:../../libDaisy//src/hid/midi.h ****     }
  60:../../libDaisy//src/hid/midi.h **** 
  61:../../libDaisy//src/hid/midi.h ****     inline void    StartRx() { uart_.StartRx(); }
  62:../../libDaisy//src/hid/midi.h ****     inline size_t  Readable() { return uart_.Readable(); }
  63:../../libDaisy//src/hid/midi.h ****     inline uint8_t Rx() { return uart_.PopRx(); }
  64:../../libDaisy//src/hid/midi.h ****     inline bool    RxActive() { return uart_.RxActive(); }
  65:../../libDaisy//src/hid/midi.h ****     inline void    FlushRx() { uart_.FlushRx(); }
  66:../../libDaisy//src/hid/midi.h ****     inline void    Tx(uint8_t* buff, size_t size) { uart_.PollTx(buff, size); }
  67:../../libDaisy//src/hid/midi.h **** 
  68:../../libDaisy//src/hid/midi.h ****   private:
  69:../../libDaisy//src/hid/midi.h ****     UartHandler uart_;
  70:../../libDaisy//src/hid/midi.h **** };
  71:../../libDaisy//src/hid/midi.h **** 
  72:../../libDaisy//src/hid/midi.h **** /** 
  73:../../libDaisy//src/hid/midi.h ****     @brief Simple MIDI Handler \n 
  74:../../libDaisy//src/hid/midi.h ****     Parses bytes from an input into valid MidiEvents. \n 
  75:../../libDaisy//src/hid/midi.h ****     The MidiEvents fill a FIFO queue that the user can pop messages from.
  76:../../libDaisy//src/hid/midi.h ****     @author shensley
  77:../../libDaisy//src/hid/midi.h ****     @date March 2020
ARM GAS  C:\Users\wuru8\AppData\Local\Temp\cczVuj1W.s 			page 5


  78:../../libDaisy//src/hid/midi.h ****     @ingroup midi
  79:../../libDaisy//src/hid/midi.h **** */
  80:../../libDaisy//src/hid/midi.h **** template <typename Transport>
  81:../../libDaisy//src/hid/midi.h **** class MidiHandler
  82:../../libDaisy//src/hid/midi.h **** {
  83:../../libDaisy//src/hid/midi.h ****   public:
  84:../../libDaisy//src/hid/midi.h ****     MidiHandler() {}
  85:../../libDaisy//src/hid/midi.h ****     ~MidiHandler() {}
  69              		.loc 4 85 5 view .LVU5
  70              	.LBB572:
  71              	.LBI572:
  26:../../libDaisy//src/hid/midi.h **** 
  72              		.loc 4 26 5 view .LVU6
  26:../../libDaisy//src/hid/midi.h **** 
  73              		.loc 4 26 5 is_stmt 0 view .LVU7
  74              	.LBE572:
  75              	.LBE571:
  76              	.LBB573:
  77              	.LBI573:
  78              		.file 5 "../../libDaisy//src/hid/rgb_led.h"
   1:../../libDaisy//src/hid/rgb_led.h **** #pragma once
   2:../../libDaisy//src/hid/rgb_led.h **** #ifndef DSY_RGB_LED_H
   3:../../libDaisy//src/hid/rgb_led.h **** #define DSY_RGB_LED_H
   4:../../libDaisy//src/hid/rgb_led.h **** #include "hid/led.h"
   5:../../libDaisy//src/hid/rgb_led.h **** #include "util/color.h"
   6:../../libDaisy//src/hid/rgb_led.h **** 
   7:../../libDaisy//src/hid/rgb_led.h **** namespace daisy
   8:../../libDaisy//src/hid/rgb_led.h **** {
   9:../../libDaisy//src/hid/rgb_led.h **** /** @addtogroup feedback
  10:../../libDaisy//src/hid/rgb_led.h ****     @{
  11:../../libDaisy//src/hid/rgb_led.h **** */
  12:../../libDaisy//src/hid/rgb_led.h **** 
  13:../../libDaisy//src/hid/rgb_led.h **** /** 3x LEDs configured as an RGB for ease of use. */
  14:../../libDaisy//src/hid/rgb_led.h **** class RgbLed
  15:../../libDaisy//src/hid/rgb_led.h **** {
  16:../../libDaisy//src/hid/rgb_led.h ****   public:
  17:../../libDaisy//src/hid/rgb_led.h ****     RgbLed() {}
  18:../../libDaisy//src/hid/rgb_led.h ****     ~RgbLed() {}
  79              		.loc 5 18 5 is_stmt 1 view .LVU8
  80              	.LBB574:
  81              	.LBI574:
  82              		.file 6 "../../libDaisy//src/hid/led.h"
   1:../../libDaisy//src/hid/led.h **** 
   2:../../libDaisy//src/hid/led.h **** #pragma once
   3:../../libDaisy//src/hid/led.h **** #ifndef DSY_LED_H
   4:../../libDaisy//src/hid/led.h **** #define DSY_LED_H
   5:../../libDaisy//src/hid/led.h **** #include "daisy_core.h"
   6:../../libDaisy//src/hid/led.h **** #include "per/gpio.h"
   7:../../libDaisy//src/hid/led.h **** 
   8:../../libDaisy//src/hid/led.h **** /* TODO - Get this set up to work with the dev_leddriver stuff as well
   9:../../libDaisy//src/hid/led.h **** - Setup Hardware PWM for pins that have it
  10:../../libDaisy//src/hid/led.h **** */
  11:../../libDaisy//src/hid/led.h **** 
  12:../../libDaisy//src/hid/led.h **** namespace daisy
  13:../../libDaisy//src/hid/led.h **** {
  14:../../libDaisy//src/hid/led.h **** /**
  15:../../libDaisy//src/hid/led.h ****     @brief LED Class providing simple Software PWM ability, etc \n 
ARM GAS  C:\Users\wuru8\AppData\Local\Temp\cczVuj1W.s 			page 6


  16:../../libDaisy//src/hid/led.h ****     Eventually this will work with hardware PWM, and external LED Driver devices as well.
  17:../../libDaisy//src/hid/led.h ****     @author shensley
  18:../../libDaisy//src/hid/led.h ****     @date March 2020
  19:../../libDaisy//src/hid/led.h ****     @ingroup feedback
  20:../../libDaisy//src/hid/led.h **** */
  21:../../libDaisy//src/hid/led.h **** class Led
  22:../../libDaisy//src/hid/led.h **** {
  23:../../libDaisy//src/hid/led.h ****   public:
  24:../../libDaisy//src/hid/led.h ****     Led() {}
  25:../../libDaisy//src/hid/led.h ****     ~Led() {}
  83              		.loc 6 25 5 view .LVU9
  84              		.loc 6 25 5 is_stmt 0 view .LVU10
  85              	.LBE574:
  86              	.LBB575:
  87              	.LBI575:
  88              		.loc 6 25 5 is_stmt 1 view .LVU11
  89              		.loc 6 25 5 is_stmt 0 view .LVU12
  90              	.LBE575:
  91              	.LBB576:
  92              	.LBI576:
  93              		.loc 6 25 5 is_stmt 1 view .LVU13
  94              		.loc 6 25 5 is_stmt 0 view .LVU14
  95              	.LBE576:
  96              	.LBE573:
  97              	.LBB577:
  98              	.LBI577:
  99              		.loc 5 18 5 is_stmt 1 view .LVU15
 100              	.LBB578:
 101              	.LBI578:
 102              		.loc 6 25 5 view .LVU16
 103              		.loc 6 25 5 is_stmt 0 view .LVU17
 104              	.LBE578:
 105              	.LBB579:
 106              	.LBI579:
 107              		.loc 6 25 5 is_stmt 1 view .LVU18
 108              		.loc 6 25 5 is_stmt 0 view .LVU19
 109              	.LBE579:
 110              	.LBB580:
 111              	.LBI580:
 112              		.loc 6 25 5 is_stmt 1 view .LVU20
 113              		.loc 6 25 5 is_stmt 0 view .LVU21
 114              	.LBE580:
 115              	.LBE577:
 116              	.LBB581:
 117              	.LBI581:
 118              		.file 7 "../../libDaisy//src/hid/switch.h"
   1:../../libDaisy//src/hid/switch.h **** #pragma once
   2:../../libDaisy//src/hid/switch.h **** #ifndef DSY_SWITCH_H
   3:../../libDaisy//src/hid/switch.h **** #define DSY_SWITCH_H
   4:../../libDaisy//src/hid/switch.h **** #include "daisy_core.h"
   5:../../libDaisy//src/hid/switch.h **** #include "per/gpio.h"
   6:../../libDaisy//src/hid/switch.h **** #include "sys/system.h"
   7:../../libDaisy//src/hid/switch.h **** 
   8:../../libDaisy//src/hid/switch.h **** namespace daisy
   9:../../libDaisy//src/hid/switch.h **** {
  10:../../libDaisy//src/hid/switch.h **** /** 
  11:../../libDaisy//src/hid/switch.h ****     Generic Class for handling momentary/latching switches \n 
ARM GAS  C:\Users\wuru8\AppData\Local\Temp\cczVuj1W.s 			page 7


  12:../../libDaisy//src/hid/switch.h ****     Inspired/influenced by Mutable Instruments (pichenettes) Switch classes
  13:../../libDaisy//src/hid/switch.h ****     @author Stephen Hensley
  14:../../libDaisy//src/hid/switch.h ****     @date December 2019
  15:../../libDaisy//src/hid/switch.h ****     @ingroup controls
  16:../../libDaisy//src/hid/switch.h **** */
  17:../../libDaisy//src/hid/switch.h **** class Switch
  18:../../libDaisy//src/hid/switch.h **** {
  19:../../libDaisy//src/hid/switch.h ****   public:
  20:../../libDaisy//src/hid/switch.h ****     /** Specifies the expected behavior of the switch */
  21:../../libDaisy//src/hid/switch.h ****     enum Type
  22:../../libDaisy//src/hid/switch.h ****     {
  23:../../libDaisy//src/hid/switch.h ****         TYPE_TOGGLE,    /**< & */
  24:../../libDaisy//src/hid/switch.h ****         TYPE_MOMENTARY, /**< & */
  25:../../libDaisy//src/hid/switch.h ****     };
  26:../../libDaisy//src/hid/switch.h ****     /** Specifies whether the pressed is HIGH or LOW. */
  27:../../libDaisy//src/hid/switch.h ****     enum Polarity
  28:../../libDaisy//src/hid/switch.h ****     {
  29:../../libDaisy//src/hid/switch.h ****         POLARITY_NORMAL,   /**< & */
  30:../../libDaisy//src/hid/switch.h ****         POLARITY_INVERTED, /**< & */
  31:../../libDaisy//src/hid/switch.h ****     };
  32:../../libDaisy//src/hid/switch.h **** 
  33:../../libDaisy//src/hid/switch.h ****     /** Specifies whether to use built-in Pull Up/Down resistors to hold button at a given state wh
  34:../../libDaisy//src/hid/switch.h ****     enum Pull
  35:../../libDaisy//src/hid/switch.h ****     {
  36:../../libDaisy//src/hid/switch.h ****         PULL_UP,   /**< & */
  37:../../libDaisy//src/hid/switch.h ****         PULL_DOWN, /**< & */
  38:../../libDaisy//src/hid/switch.h ****         PULL_NONE, /**< & */
  39:../../libDaisy//src/hid/switch.h ****     };
  40:../../libDaisy//src/hid/switch.h **** 
  41:../../libDaisy//src/hid/switch.h ****     Switch() {}
  42:../../libDaisy//src/hid/switch.h ****     ~Switch() {}
 119              		.loc 7 42 5 is_stmt 1 view .LVU22
 120              		.loc 7 42 5 is_stmt 0 view .LVU23
 121              	.LBE581:
 122              	.LBB582:
 123              	.LBI582:
 124              		.loc 7 42 5 is_stmt 1 view .LVU24
 125              		.loc 7 42 5 is_stmt 0 view .LVU25
 126              	.LBE582:
 127              	.LBB583:
 128              	.LBI583:
 129              		.loc 2 23 5 is_stmt 1 view .LVU26
 130              		.loc 2 23 5 is_stmt 0 view .LVU27
 131              	.LBE583:
 132              	.LBB584:
 133              	.LBI584:
 134              		.loc 2 23 5 is_stmt 1 view .LVU28
 135              		.loc 2 23 5 is_stmt 0 view .LVU29
 136              	.LBE584:
 137              	.LBB585:
 138              	.LBI585:
 139              		.file 8 "../../libDaisy//src/hid/encoder.h"
   1:../../libDaisy//src/hid/encoder.h **** #pragma once
   2:../../libDaisy//src/hid/encoder.h **** #ifndef DSY_ENCODER_H
   3:../../libDaisy//src/hid/encoder.h **** #define DSY_ENCODER_H
   4:../../libDaisy//src/hid/encoder.h **** #include "daisy_core.h"
   5:../../libDaisy//src/hid/encoder.h **** #include "per/gpio.h"
ARM GAS  C:\Users\wuru8\AppData\Local\Temp\cczVuj1W.s 			page 8


   6:../../libDaisy//src/hid/encoder.h **** #include "hid/switch.h"
   7:../../libDaisy//src/hid/encoder.h **** 
   8:../../libDaisy//src/hid/encoder.h **** namespace daisy
   9:../../libDaisy//src/hid/encoder.h **** {
  10:../../libDaisy//src/hid/encoder.h **** /** 
  11:../../libDaisy//src/hid/encoder.h ****     @brief Generic Class for handling Quadrature Encoders \n 
  12:../../libDaisy//src/hid/encoder.h ****     Inspired/influenced by Mutable Instruments (pichenettes) Encoder classes
  13:../../libDaisy//src/hid/encoder.h ****     @author Stephen Hensley
  14:../../libDaisy//src/hid/encoder.h ****     @date December 2019
  15:../../libDaisy//src/hid/encoder.h ****     @ingroup controls
  16:../../libDaisy//src/hid/encoder.h **** */
  17:../../libDaisy//src/hid/encoder.h **** class Encoder
  18:../../libDaisy//src/hid/encoder.h **** {
  19:../../libDaisy//src/hid/encoder.h ****   public:
  20:../../libDaisy//src/hid/encoder.h ****     Encoder() {}
  21:../../libDaisy//src/hid/encoder.h ****     ~Encoder() {}
 140              		.loc 8 21 5 is_stmt 1 view .LVU30
 141              	.LBB586:
 142              	.LBI586:
 143              		.loc 7 42 5 view .LVU31
 144              		.loc 7 42 5 is_stmt 0 view .LVU32
 145              	.LBE586:
 146              	.LBE585:
 147              	.LBB587:
 148              	.LBI587:
 149              		.file 9 "../../libDaisy//src/daisy_seed.h"
   1:../../libDaisy//src/daisy_seed.h **** #pragma once
   2:../../libDaisy//src/daisy_seed.h **** #ifndef DSY_SEED_H
   3:../../libDaisy//src/daisy_seed.h **** #define DSY_SEED_H
   4:../../libDaisy//src/daisy_seed.h **** 
   5:../../libDaisy//src/daisy_seed.h **** #include "daisy.h"
   6:../../libDaisy//src/daisy_seed.h **** 
   7:../../libDaisy//src/daisy_seed.h **** //Uncomment this out if you're still using the rev2 hardware
   8:../../libDaisy//src/daisy_seed.h **** //#define SEED_REV2
   9:../../libDaisy//src/daisy_seed.h **** 
  10:../../libDaisy//src/daisy_seed.h **** namespace daisy
  11:../../libDaisy//src/daisy_seed.h **** {
  12:../../libDaisy//src/daisy_seed.h **** /**
  13:../../libDaisy//src/daisy_seed.h ****    @brief This is the higher-level interface for the Daisy board. \n 
  14:../../libDaisy//src/daisy_seed.h ****     All basic peripheral configuration/initialization is setup here. \n
  15:../../libDaisy//src/daisy_seed.h **** 
  16:../../libDaisy//src/daisy_seed.h ****    @ingroup boards
  17:../../libDaisy//src/daisy_seed.h **** */
  18:../../libDaisy//src/daisy_seed.h **** class DaisySeed
  19:../../libDaisy//src/daisy_seed.h **** {
  20:../../libDaisy//src/daisy_seed.h ****   public:
  21:../../libDaisy//src/daisy_seed.h ****     DaisySeed() {}
  22:../../libDaisy//src/daisy_seed.h ****     ~DaisySeed() {}
 150              		.loc 9 22 5 is_stmt 1 view .LVU33
 151              	.LBB588:
 152              	.LBI588:
 153              		.file 10 "../../libDaisy//src/sys/system.h"
   1:../../libDaisy//src/sys/system.h **** #ifndef DSY_SYSTEM_H
   2:../../libDaisy//src/sys/system.h **** #define DSY_SYSTEM_H
   3:../../libDaisy//src/sys/system.h **** 
   4:../../libDaisy//src/sys/system.h **** #ifndef UNIT_TEST // for unit tests, a dummy implementation is provided below
   5:../../libDaisy//src/sys/system.h **** 
ARM GAS  C:\Users\wuru8\AppData\Local\Temp\cczVuj1W.s 			page 9


   6:../../libDaisy//src/sys/system.h **** #include <cstdint>
   7:../../libDaisy//src/sys/system.h **** #include "per/tim.h"
   8:../../libDaisy//src/sys/system.h **** 
   9:../../libDaisy//src/sys/system.h **** namespace daisy
  10:../../libDaisy//src/sys/system.h **** {
  11:../../libDaisy//src/sys/system.h **** /** A handle for interacting with the Core System. 
  12:../../libDaisy//src/sys/system.h ****  ** This includes the Clock tree, MPU, global DMA initialization,
  13:../../libDaisy//src/sys/system.h ****  ** cache handling, and any other necessary global initiailzation
  14:../../libDaisy//src/sys/system.h ****  **
  15:../../libDaisy//src/sys/system.h ****  ** @author shensley
  16:../../libDaisy//src/sys/system.h ****  ** @ingroup system
  17:../../libDaisy//src/sys/system.h ****  */
  18:../../libDaisy//src/sys/system.h **** class System
  19:../../libDaisy//src/sys/system.h **** {
  20:../../libDaisy//src/sys/system.h ****   public:
  21:../../libDaisy//src/sys/system.h ****     /** Contains settings for initializing the System */
  22:../../libDaisy//src/sys/system.h ****     struct Config
  23:../../libDaisy//src/sys/system.h ****     {
  24:../../libDaisy//src/sys/system.h ****         /** Specifies the system clock frequency that feeds APB/AHB clocks, etc. */
  25:../../libDaisy//src/sys/system.h ****         enum class SysClkFreq
  26:../../libDaisy//src/sys/system.h ****         {
  27:../../libDaisy//src/sys/system.h ****             FREQ_400MHZ,
  28:../../libDaisy//src/sys/system.h ****             FREQ_480MHZ,
  29:../../libDaisy//src/sys/system.h ****         };
  30:../../libDaisy//src/sys/system.h **** 
  31:../../libDaisy//src/sys/system.h ****         /** Method to call on the struct to set to defaults
  32:../../libDaisy//src/sys/system.h ****          ** CPU Freq set to 400MHz
  33:../../libDaisy//src/sys/system.h ****          ** Cache Enabled 
  34:../../libDaisy//src/sys/system.h ****          ** */
  35:../../libDaisy//src/sys/system.h ****         void Defaults()
  36:../../libDaisy//src/sys/system.h ****         {
  37:../../libDaisy//src/sys/system.h ****             cpu_freq    = SysClkFreq::FREQ_400MHZ;
  38:../../libDaisy//src/sys/system.h ****             use_dcache  = true;
  39:../../libDaisy//src/sys/system.h ****             use_icache  = true;
  40:../../libDaisy//src/sys/system.h ****             skip_clocks = false;
  41:../../libDaisy//src/sys/system.h ****         }
  42:../../libDaisy//src/sys/system.h **** 
  43:../../libDaisy//src/sys/system.h ****         /** Method to call on the struct to set to boost mode:
  44:../../libDaisy//src/sys/system.h ****          ** CPU Freq set to 480MHz
  45:../../libDaisy//src/sys/system.h ****          ** Cache Enabled 
  46:../../libDaisy//src/sys/system.h ****          ** */
  47:../../libDaisy//src/sys/system.h ****         void Boost()
  48:../../libDaisy//src/sys/system.h ****         {
  49:../../libDaisy//src/sys/system.h ****             cpu_freq    = SysClkFreq::FREQ_480MHZ;
  50:../../libDaisy//src/sys/system.h ****             use_dcache  = true;
  51:../../libDaisy//src/sys/system.h ****             use_icache  = true;
  52:../../libDaisy//src/sys/system.h ****             skip_clocks = false;
  53:../../libDaisy//src/sys/system.h ****         }
  54:../../libDaisy//src/sys/system.h **** 
  55:../../libDaisy//src/sys/system.h ****         SysClkFreq cpu_freq;
  56:../../libDaisy//src/sys/system.h ****         bool       use_dcache;
  57:../../libDaisy//src/sys/system.h ****         bool       use_icache;
  58:../../libDaisy//src/sys/system.h ****         bool       skip_clocks;
  59:../../libDaisy//src/sys/system.h ****     };
  60:../../libDaisy//src/sys/system.h **** 
  61:../../libDaisy//src/sys/system.h ****     /** Describes the different regions of memory available to the Daisy
  62:../../libDaisy//src/sys/system.h ****      * 
ARM GAS  C:\Users\wuru8\AppData\Local\Temp\cczVuj1W.s 			page 10


  63:../../libDaisy//src/sys/system.h ****      */
  64:../../libDaisy//src/sys/system.h ****     enum MemoryRegion
  65:../../libDaisy//src/sys/system.h ****     {
  66:../../libDaisy//src/sys/system.h ****         INTERNAL_FLASH = 0,
  67:../../libDaisy//src/sys/system.h ****         ITCMRAM,
  68:../../libDaisy//src/sys/system.h ****         DTCMRAM,
  69:../../libDaisy//src/sys/system.h ****         SRAM_D1,
  70:../../libDaisy//src/sys/system.h ****         SRAM_D2,
  71:../../libDaisy//src/sys/system.h ****         SRAM_D3,
  72:../../libDaisy//src/sys/system.h ****         SDRAM,
  73:../../libDaisy//src/sys/system.h ****         QSPI,
  74:../../libDaisy//src/sys/system.h ****         INVALID_ADDRESS,
  75:../../libDaisy//src/sys/system.h ****     };
  76:../../libDaisy//src/sys/system.h **** 
  77:../../libDaisy//src/sys/system.h ****     System() {}
  78:../../libDaisy//src/sys/system.h ****     ~System() {}
 154              		.loc 10 78 5 view .LVU34
 155              		.loc 10 78 5 is_stmt 0 view .LVU35
 156              	.LBE588:
 157              	.LBB589:
 158              	.LBI589:
 159              		.file 11 "../../libDaisy//src/hid/usb.h"
   1:../../libDaisy//src/hid/usb.h **** #pragma once
   2:../../libDaisy//src/hid/usb.h **** #ifndef DSY_HID_USB_H
   3:../../libDaisy//src/hid/usb.h **** #define DSY_HID_USB_H
   4:../../libDaisy//src/hid/usb.h **** #include <stdint.h>
   5:../../libDaisy//src/hid/usb.h **** #include <stdlib.h>
   6:../../libDaisy//src/hid/usb.h **** 
   7:../../libDaisy//src/hid/usb.h **** namespace daisy
   8:../../libDaisy//src/hid/usb.h **** /** @addtogroup human_interface
   9:../../libDaisy//src/hid/usb.h ****     @{
  10:../../libDaisy//src/hid/usb.h **** */
  11:../../libDaisy//src/hid/usb.h **** 
  12:../../libDaisy//src/hid/usb.h **** {
  13:../../libDaisy//src/hid/usb.h **** /** 
  14:../../libDaisy//src/hid/usb.h ****     @brief Interface for initializing and using the USB Peripherals on the daisy
  15:../../libDaisy//src/hid/usb.h ****     @author Stephen Hensley
  16:../../libDaisy//src/hid/usb.h ****     @date December 2019
  17:../../libDaisy//src/hid/usb.h **** */
  18:../../libDaisy//src/hid/usb.h **** class UsbHandle
  19:../../libDaisy//src/hid/usb.h **** {
  20:../../libDaisy//src/hid/usb.h ****   public:
  21:../../libDaisy//src/hid/usb.h ****     /** Return values for USBHandle Functions */
  22:../../libDaisy//src/hid/usb.h ****     enum class Result
  23:../../libDaisy//src/hid/usb.h ****     {
  24:../../libDaisy//src/hid/usb.h ****         OK,
  25:../../libDaisy//src/hid/usb.h ****         ERR,
  26:../../libDaisy//src/hid/usb.h ****     };
  27:../../libDaisy//src/hid/usb.h **** 
  28:../../libDaisy//src/hid/usb.h ****     /** Specified which of the two USB Peripherals to initialize. */
  29:../../libDaisy//src/hid/usb.h ****     enum UsbPeriph
  30:../../libDaisy//src/hid/usb.h ****     {
  31:../../libDaisy//src/hid/usb.h ****         FS_INTERNAL, /**< Internal pin */
  32:../../libDaisy//src/hid/usb.h ****         FS_EXTERNAL, /**< FS External D+ pin is Pin 38 (GPIO32). FS External D- pin is Pin 37 (GPIO
  33:../../libDaisy//src/hid/usb.h ****         FS_BOTH,     /**< Both */
  34:../../libDaisy//src/hid/usb.h ****     };
  35:../../libDaisy//src/hid/usb.h **** 
ARM GAS  C:\Users\wuru8\AppData\Local\Temp\cczVuj1W.s 			page 11


  36:../../libDaisy//src/hid/usb.h **** 
  37:../../libDaisy//src/hid/usb.h ****     /** Function called upon reception of a buffer */
  38:../../libDaisy//src/hid/usb.h ****     typedef void (*ReceiveCallback)(uint8_t* buff, uint32_t* len);
  39:../../libDaisy//src/hid/usb.h **** 
  40:../../libDaisy//src/hid/usb.h ****     UsbHandle() {}
  41:../../libDaisy//src/hid/usb.h **** 
  42:../../libDaisy//src/hid/usb.h ****     ~UsbHandle() {}
 160              		.loc 11 42 5 is_stmt 1 view .LVU36
 161              		.loc 11 42 5 is_stmt 0 view .LVU37
 162              	.LBE589:
 163              	.LBB590:
 164              	.LBI590:
 165              		.file 12 "../../libDaisy//src/per/adc.h"
   1:../../libDaisy//src/per/adc.h **** #pragma once
   2:../../libDaisy//src/per/adc.h **** #ifndef DSY_ADC_H
   3:../../libDaisy//src/per/adc.h **** #define DSY_ADC_H /**< Macro */
   4:../../libDaisy//src/per/adc.h **** #include <stdint.h>
   5:../../libDaisy//src/per/adc.h **** #include <stdlib.h>
   6:../../libDaisy//src/per/adc.h **** #include "daisy_core.h"
   7:../../libDaisy//src/per/adc.h **** #include "per/gpio.h"
   8:../../libDaisy//src/per/adc.h **** 
   9:../../libDaisy//src/per/adc.h **** #define DSY_ADC_MAX_CHANNELS 16 /**< Maximum number of ADC channels */
  10:../../libDaisy//src/per/adc.h **** 
  11:../../libDaisy//src/per/adc.h **** namespace daisy
  12:../../libDaisy//src/per/adc.h **** {
  13:../../libDaisy//src/per/adc.h **** /** @addtogroup per_analog
  14:../../libDaisy//src/per/adc.h ****     @{
  15:../../libDaisy//src/per/adc.h **** */
  16:../../libDaisy//src/per/adc.h **** 
  17:../../libDaisy//src/per/adc.h **** /* While there may not be many configuration options here,
  18:../../libDaisy//src/per/adc.h **** using a struct like this allows us to add more configuration
  19:../../libDaisy//src/per/adc.h **** later without breaking existing functionality.
  20:../../libDaisy//src/per/adc.h **** */
  21:../../libDaisy//src/per/adc.h **** 
  22:../../libDaisy//src/per/adc.h **** /** @brief   Configuration Structure for an ADC Channel 
  23:../../libDaisy//src/per/adc.h ****  *  @details This can be used to configure a a single input, 
  24:../../libDaisy//src/per/adc.h ****  *           or a multiplexed input, allowing up to 8 inputs on 
  25:../../libDaisy//src/per/adc.h ****  *           one channel.
  26:../../libDaisy//src/per/adc.h ****  *  @note    Sharing data lines to multiple muxes _is_ possible, but
  27:../../libDaisy//src/per/adc.h ****  *           each channel sharing data lines must be set to the maximum
  28:../../libDaisy//src/per/adc.h ****  *           number of channels, even if some multiplexers have fewer
  29:../../libDaisy//src/per/adc.h ****  *           inputs connected.
  30:../../libDaisy//src/per/adc.h **** */
  31:../../libDaisy//src/per/adc.h **** struct AdcChannelConfig
  32:../../libDaisy//src/per/adc.h **** {
  33:../../libDaisy//src/per/adc.h ****     /** Which pin to use for multiplexing */
  34:../../libDaisy//src/per/adc.h ****     enum MuxPin
  35:../../libDaisy//src/per/adc.h ****     {
  36:../../libDaisy//src/per/adc.h ****         MUX_SEL_0,    /**< & */
  37:../../libDaisy//src/per/adc.h ****         MUX_SEL_1,    /**< & */
  38:../../libDaisy//src/per/adc.h ****         MUX_SEL_2,    /**< & */
  39:../../libDaisy//src/per/adc.h ****         MUX_SEL_LAST, /**< & */
  40:../../libDaisy//src/per/adc.h ****     };
  41:../../libDaisy//src/per/adc.h **** 
  42:../../libDaisy//src/per/adc.h ****     /** Initializes a single ADC pin as an ADC. 
  43:../../libDaisy//src/per/adc.h ****     \param pin Pin to init.
  44:../../libDaisy//src/per/adc.h ****      */
ARM GAS  C:\Users\wuru8\AppData\Local\Temp\cczVuj1W.s 			page 12


  45:../../libDaisy//src/per/adc.h ****     void InitSingle(dsy_gpio_pin pin);
  46:../../libDaisy//src/per/adc.h **** 
  47:../../libDaisy//src/per/adc.h ****     /** 
  48:../../libDaisy//src/per/adc.h ****     Initializes a single ADC pin as a Multiplexed ADC.
  49:../../libDaisy//src/per/adc.h ****     Requires a CD405X Multiplexer connected to the pin.
  50:../../libDaisy//src/per/adc.h ****     You only need to supply the mux pins that are required,
  51:../../libDaisy//src/per/adc.h ****     e.g. a 4052 mux would only require mux_0 and mux_1.
  52:../../libDaisy//src/per/adc.h ****     Internal Callbacks handle the pin addressing.
  53:../../libDaisy//src/per/adc.h ****     \param mux_channels must be 1-8
  54:../../libDaisy//src/per/adc.h ****     \param mux_0 First mux pin
  55:../../libDaisy//src/per/adc.h ****     \param mux_1 Second mux pin
  56:../../libDaisy//src/per/adc.h ****     \param mux_2 Third mux pin
  57:../../libDaisy//src/per/adc.h ****     \param adc_pin &
  58:../../libDaisy//src/per/adc.h ****     */
  59:../../libDaisy//src/per/adc.h ****     void InitMux(dsy_gpio_pin adc_pin,
  60:../../libDaisy//src/per/adc.h ****                  size_t       mux_channels,
  61:../../libDaisy//src/per/adc.h ****                  dsy_gpio_pin mux_0,
  62:../../libDaisy//src/per/adc.h ****                  dsy_gpio_pin mux_1 = {DSY_GPIOX, 0},
  63:../../libDaisy//src/per/adc.h ****                  dsy_gpio_pin mux_2 = {DSY_GPIOX, 0});
  64:../../libDaisy//src/per/adc.h **** 
  65:../../libDaisy//src/per/adc.h ****     dsy_gpio pin_;                   /**< & */
  66:../../libDaisy//src/per/adc.h ****     dsy_gpio mux_pin_[MUX_SEL_LAST]; /**< & */
  67:../../libDaisy//src/per/adc.h ****     uint8_t  mux_channels_;          /**< & */
  68:../../libDaisy//src/per/adc.h **** };
  69:../../libDaisy//src/per/adc.h **** 
  70:../../libDaisy//src/per/adc.h **** /**
  71:../../libDaisy//src/per/adc.h ****    @brief Handler for analog to digital conversion
  72:../../libDaisy//src/per/adc.h **** */
  73:../../libDaisy//src/per/adc.h **** class AdcHandle
  74:../../libDaisy//src/per/adc.h **** {
  75:../../libDaisy//src/per/adc.h ****   public:
  76:../../libDaisy//src/per/adc.h ****     /** Supported oversampling amounts */
  77:../../libDaisy//src/per/adc.h ****     enum OverSampling
  78:../../libDaisy//src/per/adc.h ****     {
  79:../../libDaisy//src/per/adc.h ****         OVS_NONE, /**< & */
  80:../../libDaisy//src/per/adc.h ****         OVS_4,    /**< & */
  81:../../libDaisy//src/per/adc.h ****         OVS_8,    /**< & */
  82:../../libDaisy//src/per/adc.h ****         OVS_16,   /**< & */
  83:../../libDaisy//src/per/adc.h ****         OVS_32,   /**< & */
  84:../../libDaisy//src/per/adc.h ****         OVS_64,   /**< & */
  85:../../libDaisy//src/per/adc.h ****         OVS_128,  /**< & */
  86:../../libDaisy//src/per/adc.h ****         OVS_256,  /**< & */
  87:../../libDaisy//src/per/adc.h ****         OVS_512,  /**< & */
  88:../../libDaisy//src/per/adc.h ****         OVS_1024, /**< & */
  89:../../libDaisy//src/per/adc.h ****         OVS_LAST, /**< & */
  90:../../libDaisy//src/per/adc.h ****     };
  91:../../libDaisy//src/per/adc.h **** 
  92:../../libDaisy//src/per/adc.h ****     AdcHandle() {}
  93:../../libDaisy//src/per/adc.h ****     ~AdcHandle() {}
 166              		.loc 12 93 5 is_stmt 1 view .LVU38
 167              		.loc 12 93 5 is_stmt 0 view .LVU39
 168              	.LBE590:
 169              	.LBB591:
 170              	.LBI591:
 171              		.file 13 "../../libDaisy//src/hid/audio.h"
   1:../../libDaisy//src/hid/audio.h **** #ifndef DSY_AUDIO_H
   2:../../libDaisy//src/hid/audio.h **** #define DSY_AUDIO_H /**< & */
ARM GAS  C:\Users\wuru8\AppData\Local\Temp\cczVuj1W.s 			page 13


   3:../../libDaisy//src/hid/audio.h **** 
   4:../../libDaisy//src/hid/audio.h **** #include "per/sai.h"
   5:../../libDaisy//src/hid/audio.h **** 
   6:../../libDaisy//src/hid/audio.h **** namespace daisy
   7:../../libDaisy//src/hid/audio.h **** {
   8:../../libDaisy//src/hid/audio.h **** /** @brief Audio Engine Handle
   9:../../libDaisy//src/hid/audio.h ****  *  @ingroup audio 
  10:../../libDaisy//src/hid/audio.h ****  *  @details This class allows for higher level access to an audio engine.
  11:../../libDaisy//src/hid/audio.h ****  *           If you're using a SOM like the DaisySeed or DaisyPatchSM (or any 
  12:../../libDaisy//src/hid/audio.h ****  *            board that includes one of those objects) then the intialization
  13:../../libDaisy//src/hid/audio.h ****  *            is already taken  care of.
  14:../../libDaisy//src/hid/audio.h ****  *           If you're setting up your own custom hardware, or need to make changes
  15:../../libDaisy//src/hid/audio.h ****  *           you will have to take the following steps:
  16:../../libDaisy//src/hid/audio.h ****  *             1. Create and Initialize an SaiHandle or two depending on your requirements
  17:../../libDaisy//src/hid/audio.h ****  *             2. Initialize the Audio Handle with the desired settings and the Initialized SaiHand
  18:../../libDaisy//src/hid/audio.h ****  *             3. If the connected codec requires special configuration or initialization, do so
  19:../../libDaisy//src/hid/audio.h ****  *             4. Write a callback method using either the AudioCallback or the InterleavingAudioCa
  20:../../libDaisy//src/hid/audio.h ****  *             5. Start the Audio using one of the StartAudio function
  21:../../libDaisy//src/hid/audio.h ****  */
  22:../../libDaisy//src/hid/audio.h **** class AudioHandle
  23:../../libDaisy//src/hid/audio.h **** {
  24:../../libDaisy//src/hid/audio.h ****   public:
  25:../../libDaisy//src/hid/audio.h ****     /** Manually configurable details about the Audio Engine */
  26:../../libDaisy//src/hid/audio.h ****     /** TODO: Figure out how to get samplerate in here. */
  27:../../libDaisy//src/hid/audio.h ****     struct Config
  28:../../libDaisy//src/hid/audio.h ****     {
  29:../../libDaisy//src/hid/audio.h ****         /** number of samples to process per callback */
  30:../../libDaisy//src/hid/audio.h ****         size_t blocksize;
  31:../../libDaisy//src/hid/audio.h **** 
  32:../../libDaisy//src/hid/audio.h ****         /**< Sample rate of audio */
  33:../../libDaisy//src/hid/audio.h ****         SaiHandle::Config::SampleRate samplerate;
  34:../../libDaisy//src/hid/audio.h **** 
  35:../../libDaisy//src/hid/audio.h ****         /** factor for adjustment before and after callback for hardware that may have extra headro
  36:../../libDaisy//src/hid/audio.h ****         float postgain;
  37:../../libDaisy//src/hid/audio.h **** 
  38:../../libDaisy//src/hid/audio.h ****         /** factor for additional one-sided compensation to audio path for hardware that may
  39:../../libDaisy//src/hid/audio.h ****          *  have unequal input/output ranges
  40:../../libDaisy//src/hid/audio.h ****          */
  41:../../libDaisy//src/hid/audio.h ****         float output_compensation;
  42:../../libDaisy//src/hid/audio.h **** 
  43:../../libDaisy//src/hid/audio.h ****         /** Sets default values for config struct */
  44:../../libDaisy//src/hid/audio.h ****         Config()
  45:../../libDaisy//src/hid/audio.h ****         : blocksize(48),
  46:../../libDaisy//src/hid/audio.h ****           samplerate(SaiHandle::Config::SampleRate::SAI_48KHZ),
  47:../../libDaisy//src/hid/audio.h ****           postgain(1.f),
  48:../../libDaisy//src/hid/audio.h ****           output_compensation(1.f)
  49:../../libDaisy//src/hid/audio.h ****         {
  50:../../libDaisy//src/hid/audio.h ****         }
  51:../../libDaisy//src/hid/audio.h ****     };
  52:../../libDaisy//src/hid/audio.h **** 
  53:../../libDaisy//src/hid/audio.h ****     enum class Result
  54:../../libDaisy//src/hid/audio.h ****     {
  55:../../libDaisy//src/hid/audio.h ****         OK,
  56:../../libDaisy//src/hid/audio.h ****         ERR,
  57:../../libDaisy//src/hid/audio.h ****     };
  58:../../libDaisy//src/hid/audio.h **** 
  59:../../libDaisy//src/hid/audio.h ****     /** Non-Interleaving input buffer
ARM GAS  C:\Users\wuru8\AppData\Local\Temp\cczVuj1W.s 			page 14


  60:../../libDaisy//src/hid/audio.h ****      * Buffer arranged by float[chn][sample] 
  61:../../libDaisy//src/hid/audio.h ****      * const so that the user can't modify the input
  62:../../libDaisy//src/hid/audio.h ****      */
  63:../../libDaisy//src/hid/audio.h ****     typedef const float* const* InputBuffer;
  64:../../libDaisy//src/hid/audio.h **** 
  65:../../libDaisy//src/hid/audio.h ****     /** Non-Interleaving output buffer
  66:../../libDaisy//src/hid/audio.h ****      * Arranged by float[chn][sample] 
  67:../../libDaisy//src/hid/audio.h ****      */
  68:../../libDaisy//src/hid/audio.h ****     typedef float** OutputBuffer;
  69:../../libDaisy//src/hid/audio.h **** 
  70:../../libDaisy//src/hid/audio.h ****     /** Type for a Non-Interleaving audio callback 
  71:../../libDaisy//src/hid/audio.h ****      * Non-Interleaving audio callbacks in daisy will be of this type
  72:../../libDaisy//src/hid/audio.h ****      */
  73:../../libDaisy//src/hid/audio.h ****     typedef void (*AudioCallback)(InputBuffer  in,
  74:../../libDaisy//src/hid/audio.h ****                                   OutputBuffer out,
  75:../../libDaisy//src/hid/audio.h ****                                   size_t       size);
  76:../../libDaisy//src/hid/audio.h **** 
  77:../../libDaisy//src/hid/audio.h ****     /** Interleaving Input buffer
  78:../../libDaisy//src/hid/audio.h ****      ** audio is prepared as { L0, R0, L1, R1, . . . LN, RN }]
  79:../../libDaisy//src/hid/audio.h ****      ** this is const, as the user shouldn't modify it
  80:../../libDaisy//src/hid/audio.h ****     */
  81:../../libDaisy//src/hid/audio.h ****     typedef const float* InterleavingInputBuffer;
  82:../../libDaisy//src/hid/audio.h **** 
  83:../../libDaisy//src/hid/audio.h ****     /** Interleaving Output buffer 
  84:../../libDaisy//src/hid/audio.h ****      ** audio is prepared as { L0, R0, L1, R1, . . . LN, RN }
  85:../../libDaisy//src/hid/audio.h ****     */
  86:../../libDaisy//src/hid/audio.h ****     typedef float* InterleavingOutputBuffer;
  87:../../libDaisy//src/hid/audio.h **** 
  88:../../libDaisy//src/hid/audio.h ****     /** Interleaving Audio Callback 
  89:../../libDaisy//src/hid/audio.h ****      * Interleaving audio callbacks in daisy must be of this type
  90:../../libDaisy//src/hid/audio.h ****      */
  91:../../libDaisy//src/hid/audio.h ****     typedef void (*InterleavingAudioCallback)(InterleavingInputBuffer  in,
  92:../../libDaisy//src/hid/audio.h ****                                               InterleavingOutputBuffer out,
  93:../../libDaisy//src/hid/audio.h ****                                               size_t                   size);
  94:../../libDaisy//src/hid/audio.h **** 
  95:../../libDaisy//src/hid/audio.h ****     AudioHandle() : pimpl_(nullptr) {}
  96:../../libDaisy//src/hid/audio.h ****     ~AudioHandle() {}
 172              		.loc 13 96 5 is_stmt 1 view .LVU40
 173              		.loc 13 96 5 is_stmt 0 view .LVU41
 174              	.LBE591:
 175              	.LBE587:
 176              		.loc 3 36 18 view .LVU42
 177 0000 7047     		bx	lr
 178              		.cfi_endproc
 179              	.LFE2537:
 181              		.weak	_ZN5daisy8DaisyPodD1Ev
 182              		.thumb_set _ZN5daisy8DaisyPodD1Ev,_ZN5daisy8DaisyPodD2Ev
 183 0002 00BF     		.section	.text._ZN7daisysp10OscillatorD2Ev,"axG",%progbits,_ZN7daisysp10OscillatorD5Ev,comdat
 184              		.align	1
 185              		.p2align 2,,3
 186              		.weak	_ZN7daisysp10OscillatorD2Ev
 187              		.syntax unified
 188              		.thumb
 189              		.thumb_func
 190              		.fpu fpv5-d16
 192              	_ZN7daisysp10OscillatorD2Ev:
 193              	.LVL2:
ARM GAS  C:\Users\wuru8\AppData\Local\Temp\cczVuj1W.s 			page 15


 194              	.LFB4225:
 195              		.file 14 "../../DaisySP//Source/Synthesis/oscillator.h"
   1:../../DaisySP//Source/Synthesis/oscillator.h **** #pragma once
   2:../../DaisySP//Source/Synthesis/oscillator.h **** #ifndef DSY_OSCILLATOR_H
   3:../../DaisySP//Source/Synthesis/oscillator.h **** #define DSY_OSCILLATOR_H
   4:../../DaisySP//Source/Synthesis/oscillator.h **** #include <stdint.h>
   5:../../DaisySP//Source/Synthesis/oscillator.h **** #include "Utility/dsp.h"
   6:../../DaisySP//Source/Synthesis/oscillator.h **** #ifdef __cplusplus
   7:../../DaisySP//Source/Synthesis/oscillator.h **** 
   8:../../DaisySP//Source/Synthesis/oscillator.h **** namespace daisysp
   9:../../DaisySP//Source/Synthesis/oscillator.h **** {
  10:../../DaisySP//Source/Synthesis/oscillator.h **** /** Synthesis of several waveforms, including polyBLEP bandlimited waveforms.
  11:../../DaisySP//Source/Synthesis/oscillator.h **** */
  12:../../DaisySP//Source/Synthesis/oscillator.h **** class Oscillator
  13:../../DaisySP//Source/Synthesis/oscillator.h **** {
  14:../../DaisySP//Source/Synthesis/oscillator.h ****   public:
  15:../../DaisySP//Source/Synthesis/oscillator.h ****     Oscillator() {}
  16:../../DaisySP//Source/Synthesis/oscillator.h ****     ~Oscillator() {}
 196              		.loc 14 16 5 is_stmt 1 view -0
 197              		.cfi_startproc
 198              		@ args = 0, pretend = 0, frame = 0
 199              		@ frame_needed = 0, uses_anonymous_args = 0
 200              		@ link register save eliminated.
 201              		.loc 14 16 20 is_stmt 0 view .LVU44
 202 0000 7047     		bx	lr
 203              		.cfi_endproc
 204              	.LFE4225:
 206              		.weak	_ZN7daisysp10OscillatorD1Ev
 207              		.thumb_set _ZN7daisysp10OscillatorD1Ev,_ZN7daisysp10OscillatorD2Ev
 208              		.section	.text.__tcf_0,"ax",%progbits
 209              		.align	1
 210              		.p2align 2,,3
 211              		.syntax unified
 212              		.thumb
 213              		.thumb_func
 214              		.fpu fpv5-d16
 216              	__tcf_0:
 217              	.LFB5398:
 218              		.file 15 "ExampleProject.cpp"
   1:ExampleProject.cpp **** #include "daisy_pod.h"
   2:ExampleProject.cpp **** #include "daisysp.h"
   3:ExampleProject.cpp **** #include <math.h>
   4:ExampleProject.cpp **** #include <random>
   5:ExampleProject.cpp **** 
   6:ExampleProject.cpp **** using namespace daisy;
   7:ExampleProject.cpp **** using namespace daisysp;
   8:ExampleProject.cpp **** 
   9:ExampleProject.cpp **** std::random_device rd;     // Only used once to initialise (seed) engine
  10:ExampleProject.cpp **** std::mt19937 rng(rd());    // Random-number engine used (Mersenne-Twister in this case)
  11:ExampleProject.cpp **** std::uniform_int_distribution<int> uni(1,12); // Guaranteed unbiased
  12:ExampleProject.cpp **** 
  13:ExampleProject.cpp **** 
  14:ExampleProject.cpp **** 
  15:ExampleProject.cpp **** 
  16:ExampleProject.cpp **** 
  17:ExampleProject.cpp **** DaisyPod hw;
  18:ExampleProject.cpp **** Oscillator osc;
ARM GAS  C:\Users\wuru8\AppData\Local\Temp\cczVuj1W.s 			page 16


  19:ExampleProject.cpp **** Parameter knob1;
  20:ExampleProject.cpp **** Parameter knob2;
  21:ExampleProject.cpp **** 
  22:ExampleProject.cpp **** Color led1Color[4];
 219              		.loc 15 22 7 is_stmt 1 view -0
 220              		.cfi_startproc
 221              		@ args = 0, pretend = 0, frame = 0
 222              		@ frame_needed = 0, uses_anonymous_args = 0
 223              		@ link register save eliminated.
 224              		.loc 15 22 7 is_stmt 0 view .LVU46
 225 0000 7047     		bx	lr
 226              		.cfi_endproc
 227              	.LFE5398:
 229 0002 00BF     		.section	.text.__tcf_1,"ax",%progbits
 230              		.align	1
 231              		.p2align 2,,3
 232              		.syntax unified
 233              		.thumb
 234              		.thumb_func
 235              		.fpu fpv5-d16
 237              	__tcf_1:
 238              	.LFB5404:
 239              		.cfi_startproc
 240              		@ args = 0, pretend = 0, frame = 0
 241              		@ frame_needed = 0, uses_anonymous_args = 0
 242              		@ link register save eliminated.
 243 0000 7047     		bx	lr
 244              		.cfi_endproc
 245              	.LFE5404:
 247 0002 00BF     		.section	.rodata._ZNSt13random_deviceC2Ev.str1.4,"aMS",%progbits,1
 248              		.align	2
 249              	.LC2:
 250 0000 64656661 		.ascii	"default\000"
 250      756C7400 
 251              		.section	.text._ZNSt13random_deviceC2Ev,"axG",%progbits,_ZNSt13random_deviceC5Ev,comdat
 252              		.align	1
 253              		.p2align 2,,3
 254              		.weak	_ZNSt13random_deviceC2Ev
 255              		.syntax unified
 256              		.thumb
 257              		.thumb_func
 258              		.fpu fpv5-d16
 260              	_ZNSt13random_deviceC2Ev:
 261              	.LVL3:
 262              	.LFB3611:
 263              		.file 16 "c:\\program files\\daisytoolchain\\arm-none-eabi\\include\\c++\\10.2.1\\bits\\random.h"
   1:c:\program files\daisytoolchain\arm-none-eabi\include\c++\10.2.1\bits\random.h **** // random number generation -*- C++ -*-
   2:c:\program files\daisytoolchain\arm-none-eabi\include\c++\10.2.1\bits\random.h **** 
   3:c:\program files\daisytoolchain\arm-none-eabi\include\c++\10.2.1\bits\random.h **** // Copyright (C) 2009-2020 Free Software Foundation, Inc.
   4:c:\program files\daisytoolchain\arm-none-eabi\include\c++\10.2.1\bits\random.h **** //
   5:c:\program files\daisytoolchain\arm-none-eabi\include\c++\10.2.1\bits\random.h **** // This file is part of the GNU ISO C++ Library.  This library is free
   6:c:\program files\daisytoolchain\arm-none-eabi\include\c++\10.2.1\bits\random.h **** // software; you can redistribute it and/or modify it under the
   7:c:\program files\daisytoolchain\arm-none-eabi\include\c++\10.2.1\bits\random.h **** // terms of the GNU General Public License as published by the
   8:c:\program files\daisytoolchain\arm-none-eabi\include\c++\10.2.1\bits\random.h **** // Free Software Foundation; either version 3, or (at your option)
   9:c:\program files\daisytoolchain\arm-none-eabi\include\c++\10.2.1\bits\random.h **** // any later version.
  10:c:\program files\daisytoolchain\arm-none-eabi\include\c++\10.2.1\bits\random.h **** 
  11:c:\program files\daisytoolchain\arm-none-eabi\include\c++\10.2.1\bits\random.h **** // This library is distributed in the hope that it will be useful,
ARM GAS  C:\Users\wuru8\AppData\Local\Temp\cczVuj1W.s 			page 17


  12:c:\program files\daisytoolchain\arm-none-eabi\include\c++\10.2.1\bits\random.h **** // but WITHOUT ANY WARRANTY; without even the implied warranty of
  13:c:\program files\daisytoolchain\arm-none-eabi\include\c++\10.2.1\bits\random.h **** // MERCHANTABILITY or FITNESS FOR A PARTICULAR PURPOSE.  See the
  14:c:\program files\daisytoolchain\arm-none-eabi\include\c++\10.2.1\bits\random.h **** // GNU General Public License for more details.
  15:c:\program files\daisytoolchain\arm-none-eabi\include\c++\10.2.1\bits\random.h **** 
  16:c:\program files\daisytoolchain\arm-none-eabi\include\c++\10.2.1\bits\random.h **** // Under Section 7 of GPL version 3, you are granted additional
  17:c:\program files\daisytoolchain\arm-none-eabi\include\c++\10.2.1\bits\random.h **** // permissions described in the GCC Runtime Library Exception, version
  18:c:\program files\daisytoolchain\arm-none-eabi\include\c++\10.2.1\bits\random.h **** // 3.1, as published by the Free Software Foundation.
  19:c:\program files\daisytoolchain\arm-none-eabi\include\c++\10.2.1\bits\random.h **** 
  20:c:\program files\daisytoolchain\arm-none-eabi\include\c++\10.2.1\bits\random.h **** // You should have received a copy of the GNU General Public License and
  21:c:\program files\daisytoolchain\arm-none-eabi\include\c++\10.2.1\bits\random.h **** // a copy of the GCC Runtime Library Exception along with this program;
  22:c:\program files\daisytoolchain\arm-none-eabi\include\c++\10.2.1\bits\random.h **** // see the files COPYING3 and COPYING.RUNTIME respectively.  If not, see
  23:c:\program files\daisytoolchain\arm-none-eabi\include\c++\10.2.1\bits\random.h **** // <http://www.gnu.org/licenses/>.
  24:c:\program files\daisytoolchain\arm-none-eabi\include\c++\10.2.1\bits\random.h **** 
  25:c:\program files\daisytoolchain\arm-none-eabi\include\c++\10.2.1\bits\random.h **** /**
  26:c:\program files\daisytoolchain\arm-none-eabi\include\c++\10.2.1\bits\random.h ****  * @file bits/random.h
  27:c:\program files\daisytoolchain\arm-none-eabi\include\c++\10.2.1\bits\random.h ****  *  This is an internal header file, included by other library headers.
  28:c:\program files\daisytoolchain\arm-none-eabi\include\c++\10.2.1\bits\random.h ****  *  Do not attempt to use it directly. @headername{random}
  29:c:\program files\daisytoolchain\arm-none-eabi\include\c++\10.2.1\bits\random.h ****  */
  30:c:\program files\daisytoolchain\arm-none-eabi\include\c++\10.2.1\bits\random.h **** 
  31:c:\program files\daisytoolchain\arm-none-eabi\include\c++\10.2.1\bits\random.h **** #ifndef _RANDOM_H
  32:c:\program files\daisytoolchain\arm-none-eabi\include\c++\10.2.1\bits\random.h **** #define _RANDOM_H 1
  33:c:\program files\daisytoolchain\arm-none-eabi\include\c++\10.2.1\bits\random.h **** 
  34:c:\program files\daisytoolchain\arm-none-eabi\include\c++\10.2.1\bits\random.h **** #include <vector>
  35:c:\program files\daisytoolchain\arm-none-eabi\include\c++\10.2.1\bits\random.h **** #include <bits/uniform_int_dist.h>
  36:c:\program files\daisytoolchain\arm-none-eabi\include\c++\10.2.1\bits\random.h **** 
  37:c:\program files\daisytoolchain\arm-none-eabi\include\c++\10.2.1\bits\random.h **** namespace std _GLIBCXX_VISIBILITY(default)
  38:c:\program files\daisytoolchain\arm-none-eabi\include\c++\10.2.1\bits\random.h **** {
  39:c:\program files\daisytoolchain\arm-none-eabi\include\c++\10.2.1\bits\random.h **** _GLIBCXX_BEGIN_NAMESPACE_VERSION
  40:c:\program files\daisytoolchain\arm-none-eabi\include\c++\10.2.1\bits\random.h **** 
  41:c:\program files\daisytoolchain\arm-none-eabi\include\c++\10.2.1\bits\random.h ****   // [26.4] Random number generation
  42:c:\program files\daisytoolchain\arm-none-eabi\include\c++\10.2.1\bits\random.h **** 
  43:c:\program files\daisytoolchain\arm-none-eabi\include\c++\10.2.1\bits\random.h ****   /**
  44:c:\program files\daisytoolchain\arm-none-eabi\include\c++\10.2.1\bits\random.h ****    * @defgroup random Random Number Generation
  45:c:\program files\daisytoolchain\arm-none-eabi\include\c++\10.2.1\bits\random.h ****    * @ingroup numerics
  46:c:\program files\daisytoolchain\arm-none-eabi\include\c++\10.2.1\bits\random.h ****    *
  47:c:\program files\daisytoolchain\arm-none-eabi\include\c++\10.2.1\bits\random.h ****    * A facility for generating random numbers on selected distributions.
  48:c:\program files\daisytoolchain\arm-none-eabi\include\c++\10.2.1\bits\random.h ****    * @{
  49:c:\program files\daisytoolchain\arm-none-eabi\include\c++\10.2.1\bits\random.h ****    */
  50:c:\program files\daisytoolchain\arm-none-eabi\include\c++\10.2.1\bits\random.h **** 
  51:c:\program files\daisytoolchain\arm-none-eabi\include\c++\10.2.1\bits\random.h ****   // std::uniform_random_bit_generator is defined in <bits/uniform_int_dist.h>
  52:c:\program files\daisytoolchain\arm-none-eabi\include\c++\10.2.1\bits\random.h **** 
  53:c:\program files\daisytoolchain\arm-none-eabi\include\c++\10.2.1\bits\random.h ****   /**
  54:c:\program files\daisytoolchain\arm-none-eabi\include\c++\10.2.1\bits\random.h ****    * @brief A function template for converting the output of a (integral)
  55:c:\program files\daisytoolchain\arm-none-eabi\include\c++\10.2.1\bits\random.h ****    * uniform random number generator to a floatng point result in the range
  56:c:\program files\daisytoolchain\arm-none-eabi\include\c++\10.2.1\bits\random.h ****    * [0-1).
  57:c:\program files\daisytoolchain\arm-none-eabi\include\c++\10.2.1\bits\random.h ****    */
  58:c:\program files\daisytoolchain\arm-none-eabi\include\c++\10.2.1\bits\random.h ****   template<typename _RealType, size_t __bits,
  59:c:\program files\daisytoolchain\arm-none-eabi\include\c++\10.2.1\bits\random.h **** 	   typename _UniformRandomNumberGenerator>
  60:c:\program files\daisytoolchain\arm-none-eabi\include\c++\10.2.1\bits\random.h ****     _RealType
  61:c:\program files\daisytoolchain\arm-none-eabi\include\c++\10.2.1\bits\random.h ****     generate_canonical(_UniformRandomNumberGenerator& __g);
  62:c:\program files\daisytoolchain\arm-none-eabi\include\c++\10.2.1\bits\random.h **** 
  63:c:\program files\daisytoolchain\arm-none-eabi\include\c++\10.2.1\bits\random.h ****   /*
  64:c:\program files\daisytoolchain\arm-none-eabi\include\c++\10.2.1\bits\random.h ****    * Implementation-space details.
  65:c:\program files\daisytoolchain\arm-none-eabi\include\c++\10.2.1\bits\random.h ****    */
  66:c:\program files\daisytoolchain\arm-none-eabi\include\c++\10.2.1\bits\random.h ****   namespace __detail
  67:c:\program files\daisytoolchain\arm-none-eabi\include\c++\10.2.1\bits\random.h ****   {
  68:c:\program files\daisytoolchain\arm-none-eabi\include\c++\10.2.1\bits\random.h ****     template<typename _UIntType, size_t __w,
ARM GAS  C:\Users\wuru8\AppData\Local\Temp\cczVuj1W.s 			page 18


  69:c:\program files\daisytoolchain\arm-none-eabi\include\c++\10.2.1\bits\random.h **** 	     bool = __w < static_cast<size_t>
  70:c:\program files\daisytoolchain\arm-none-eabi\include\c++\10.2.1\bits\random.h **** 			  (std::numeric_limits<_UIntType>::digits)>
  71:c:\program files\daisytoolchain\arm-none-eabi\include\c++\10.2.1\bits\random.h ****       struct _Shift
  72:c:\program files\daisytoolchain\arm-none-eabi\include\c++\10.2.1\bits\random.h ****       { static const _UIntType __value = 0; };
  73:c:\program files\daisytoolchain\arm-none-eabi\include\c++\10.2.1\bits\random.h **** 
  74:c:\program files\daisytoolchain\arm-none-eabi\include\c++\10.2.1\bits\random.h ****     template<typename _UIntType, size_t __w>
  75:c:\program files\daisytoolchain\arm-none-eabi\include\c++\10.2.1\bits\random.h ****       struct _Shift<_UIntType, __w, true>
  76:c:\program files\daisytoolchain\arm-none-eabi\include\c++\10.2.1\bits\random.h ****       { static const _UIntType __value = _UIntType(1) << __w; };
  77:c:\program files\daisytoolchain\arm-none-eabi\include\c++\10.2.1\bits\random.h **** 
  78:c:\program files\daisytoolchain\arm-none-eabi\include\c++\10.2.1\bits\random.h ****     template<int __s,
  79:c:\program files\daisytoolchain\arm-none-eabi\include\c++\10.2.1\bits\random.h **** 	     int __which = ((__s <= __CHAR_BIT__ * sizeof (int))
  80:c:\program files\daisytoolchain\arm-none-eabi\include\c++\10.2.1\bits\random.h **** 			    + (__s <= __CHAR_BIT__ * sizeof (long))
  81:c:\program files\daisytoolchain\arm-none-eabi\include\c++\10.2.1\bits\random.h **** 			    + (__s <= __CHAR_BIT__ * sizeof (long long))
  82:c:\program files\daisytoolchain\arm-none-eabi\include\c++\10.2.1\bits\random.h **** 			    /* assume long long no bigger than __int128 */
  83:c:\program files\daisytoolchain\arm-none-eabi\include\c++\10.2.1\bits\random.h **** 			    + (__s <= 128))>
  84:c:\program files\daisytoolchain\arm-none-eabi\include\c++\10.2.1\bits\random.h ****       struct _Select_uint_least_t
  85:c:\program files\daisytoolchain\arm-none-eabi\include\c++\10.2.1\bits\random.h ****       {
  86:c:\program files\daisytoolchain\arm-none-eabi\include\c++\10.2.1\bits\random.h **** 	static_assert(__which < 0, /* needs to be dependent */
  87:c:\program files\daisytoolchain\arm-none-eabi\include\c++\10.2.1\bits\random.h **** 		      "sorry, would be too much trouble for a slow result");
  88:c:\program files\daisytoolchain\arm-none-eabi\include\c++\10.2.1\bits\random.h ****       };
  89:c:\program files\daisytoolchain\arm-none-eabi\include\c++\10.2.1\bits\random.h **** 
  90:c:\program files\daisytoolchain\arm-none-eabi\include\c++\10.2.1\bits\random.h ****     template<int __s>
  91:c:\program files\daisytoolchain\arm-none-eabi\include\c++\10.2.1\bits\random.h ****       struct _Select_uint_least_t<__s, 4>
  92:c:\program files\daisytoolchain\arm-none-eabi\include\c++\10.2.1\bits\random.h ****       { typedef unsigned int type; };
  93:c:\program files\daisytoolchain\arm-none-eabi\include\c++\10.2.1\bits\random.h **** 
  94:c:\program files\daisytoolchain\arm-none-eabi\include\c++\10.2.1\bits\random.h ****     template<int __s>
  95:c:\program files\daisytoolchain\arm-none-eabi\include\c++\10.2.1\bits\random.h ****       struct _Select_uint_least_t<__s, 3>
  96:c:\program files\daisytoolchain\arm-none-eabi\include\c++\10.2.1\bits\random.h ****       { typedef unsigned long type; };
  97:c:\program files\daisytoolchain\arm-none-eabi\include\c++\10.2.1\bits\random.h **** 
  98:c:\program files\daisytoolchain\arm-none-eabi\include\c++\10.2.1\bits\random.h ****     template<int __s>
  99:c:\program files\daisytoolchain\arm-none-eabi\include\c++\10.2.1\bits\random.h ****       struct _Select_uint_least_t<__s, 2>
 100:c:\program files\daisytoolchain\arm-none-eabi\include\c++\10.2.1\bits\random.h ****       { typedef unsigned long long type; };
 101:c:\program files\daisytoolchain\arm-none-eabi\include\c++\10.2.1\bits\random.h **** 
 102:c:\program files\daisytoolchain\arm-none-eabi\include\c++\10.2.1\bits\random.h **** #ifdef _GLIBCXX_USE_INT128
 103:c:\program files\daisytoolchain\arm-none-eabi\include\c++\10.2.1\bits\random.h ****     template<int __s>
 104:c:\program files\daisytoolchain\arm-none-eabi\include\c++\10.2.1\bits\random.h ****       struct _Select_uint_least_t<__s, 1>
 105:c:\program files\daisytoolchain\arm-none-eabi\include\c++\10.2.1\bits\random.h ****       { typedef unsigned __int128 type; };
 106:c:\program files\daisytoolchain\arm-none-eabi\include\c++\10.2.1\bits\random.h **** #endif
 107:c:\program files\daisytoolchain\arm-none-eabi\include\c++\10.2.1\bits\random.h **** 
 108:c:\program files\daisytoolchain\arm-none-eabi\include\c++\10.2.1\bits\random.h ****     // Assume a != 0, a < m, c < m, x < m.
 109:c:\program files\daisytoolchain\arm-none-eabi\include\c++\10.2.1\bits\random.h ****     template<typename _Tp, _Tp __m, _Tp __a, _Tp __c,
 110:c:\program files\daisytoolchain\arm-none-eabi\include\c++\10.2.1\bits\random.h **** 	     bool __big_enough = (!(__m & (__m - 1))
 111:c:\program files\daisytoolchain\arm-none-eabi\include\c++\10.2.1\bits\random.h **** 				  || (_Tp(-1) - __c) / __a >= __m - 1),
 112:c:\program files\daisytoolchain\arm-none-eabi\include\c++\10.2.1\bits\random.h ****              bool __schrage_ok = __m % __a < __m / __a>
 113:c:\program files\daisytoolchain\arm-none-eabi\include\c++\10.2.1\bits\random.h ****       struct _Mod
 114:c:\program files\daisytoolchain\arm-none-eabi\include\c++\10.2.1\bits\random.h ****       {
 115:c:\program files\daisytoolchain\arm-none-eabi\include\c++\10.2.1\bits\random.h **** 	typedef typename _Select_uint_least_t<std::__lg(__a)
 116:c:\program files\daisytoolchain\arm-none-eabi\include\c++\10.2.1\bits\random.h **** 					      + std::__lg(__m) + 2>::type _Tp2;
 117:c:\program files\daisytoolchain\arm-none-eabi\include\c++\10.2.1\bits\random.h **** 	static _Tp
 118:c:\program files\daisytoolchain\arm-none-eabi\include\c++\10.2.1\bits\random.h **** 	__calc(_Tp __x)
 119:c:\program files\daisytoolchain\arm-none-eabi\include\c++\10.2.1\bits\random.h **** 	{ return static_cast<_Tp>((_Tp2(__a) * __x + __c) % __m); }
 120:c:\program files\daisytoolchain\arm-none-eabi\include\c++\10.2.1\bits\random.h ****       };
 121:c:\program files\daisytoolchain\arm-none-eabi\include\c++\10.2.1\bits\random.h **** 
 122:c:\program files\daisytoolchain\arm-none-eabi\include\c++\10.2.1\bits\random.h ****     // Schrage.
 123:c:\program files\daisytoolchain\arm-none-eabi\include\c++\10.2.1\bits\random.h ****     template<typename _Tp, _Tp __m, _Tp __a, _Tp __c>
 124:c:\program files\daisytoolchain\arm-none-eabi\include\c++\10.2.1\bits\random.h ****       struct _Mod<_Tp, __m, __a, __c, false, true>
 125:c:\program files\daisytoolchain\arm-none-eabi\include\c++\10.2.1\bits\random.h ****       {
ARM GAS  C:\Users\wuru8\AppData\Local\Temp\cczVuj1W.s 			page 19


 126:c:\program files\daisytoolchain\arm-none-eabi\include\c++\10.2.1\bits\random.h **** 	static _Tp
 127:c:\program files\daisytoolchain\arm-none-eabi\include\c++\10.2.1\bits\random.h **** 	__calc(_Tp __x);
 128:c:\program files\daisytoolchain\arm-none-eabi\include\c++\10.2.1\bits\random.h ****       };
 129:c:\program files\daisytoolchain\arm-none-eabi\include\c++\10.2.1\bits\random.h **** 
 130:c:\program files\daisytoolchain\arm-none-eabi\include\c++\10.2.1\bits\random.h ****     // Special cases:
 131:c:\program files\daisytoolchain\arm-none-eabi\include\c++\10.2.1\bits\random.h ****     // - for m == 2^n or m == 0, unsigned integer overflow is safe.
 132:c:\program files\daisytoolchain\arm-none-eabi\include\c++\10.2.1\bits\random.h ****     // - a * (m - 1) + c fits in _Tp, there is no overflow.
 133:c:\program files\daisytoolchain\arm-none-eabi\include\c++\10.2.1\bits\random.h ****     template<typename _Tp, _Tp __m, _Tp __a, _Tp __c, bool __s>
 134:c:\program files\daisytoolchain\arm-none-eabi\include\c++\10.2.1\bits\random.h ****       struct _Mod<_Tp, __m, __a, __c, true, __s>
 135:c:\program files\daisytoolchain\arm-none-eabi\include\c++\10.2.1\bits\random.h ****       {
 136:c:\program files\daisytoolchain\arm-none-eabi\include\c++\10.2.1\bits\random.h **** 	static _Tp
 137:c:\program files\daisytoolchain\arm-none-eabi\include\c++\10.2.1\bits\random.h **** 	__calc(_Tp __x)
 138:c:\program files\daisytoolchain\arm-none-eabi\include\c++\10.2.1\bits\random.h **** 	{
 139:c:\program files\daisytoolchain\arm-none-eabi\include\c++\10.2.1\bits\random.h **** 	  _Tp __res = __a * __x + __c;
 140:c:\program files\daisytoolchain\arm-none-eabi\include\c++\10.2.1\bits\random.h **** 	  if (__m)
 141:c:\program files\daisytoolchain\arm-none-eabi\include\c++\10.2.1\bits\random.h **** 	    __res %= __m;
 142:c:\program files\daisytoolchain\arm-none-eabi\include\c++\10.2.1\bits\random.h **** 	  return __res;
 143:c:\program files\daisytoolchain\arm-none-eabi\include\c++\10.2.1\bits\random.h **** 	}
 144:c:\program files\daisytoolchain\arm-none-eabi\include\c++\10.2.1\bits\random.h ****       };
 145:c:\program files\daisytoolchain\arm-none-eabi\include\c++\10.2.1\bits\random.h **** 
 146:c:\program files\daisytoolchain\arm-none-eabi\include\c++\10.2.1\bits\random.h ****     template<typename _Tp, _Tp __m, _Tp __a = 1, _Tp __c = 0>
 147:c:\program files\daisytoolchain\arm-none-eabi\include\c++\10.2.1\bits\random.h ****       inline _Tp
 148:c:\program files\daisytoolchain\arm-none-eabi\include\c++\10.2.1\bits\random.h ****       __mod(_Tp __x)
 149:c:\program files\daisytoolchain\arm-none-eabi\include\c++\10.2.1\bits\random.h ****       { return _Mod<_Tp, __m, __a, __c>::__calc(__x); }
 150:c:\program files\daisytoolchain\arm-none-eabi\include\c++\10.2.1\bits\random.h **** 
 151:c:\program files\daisytoolchain\arm-none-eabi\include\c++\10.2.1\bits\random.h ****     /*
 152:c:\program files\daisytoolchain\arm-none-eabi\include\c++\10.2.1\bits\random.h ****      * An adaptor class for converting the output of any Generator into
 153:c:\program files\daisytoolchain\arm-none-eabi\include\c++\10.2.1\bits\random.h ****      * the input for a specific Distribution.
 154:c:\program files\daisytoolchain\arm-none-eabi\include\c++\10.2.1\bits\random.h ****      */
 155:c:\program files\daisytoolchain\arm-none-eabi\include\c++\10.2.1\bits\random.h ****     template<typename _Engine, typename _DInputType>
 156:c:\program files\daisytoolchain\arm-none-eabi\include\c++\10.2.1\bits\random.h ****       struct _Adaptor
 157:c:\program files\daisytoolchain\arm-none-eabi\include\c++\10.2.1\bits\random.h ****       {
 158:c:\program files\daisytoolchain\arm-none-eabi\include\c++\10.2.1\bits\random.h **** 	static_assert(std::is_floating_point<_DInputType>::value,
 159:c:\program files\daisytoolchain\arm-none-eabi\include\c++\10.2.1\bits\random.h **** 		      "template argument must be a floating point type");
 160:c:\program files\daisytoolchain\arm-none-eabi\include\c++\10.2.1\bits\random.h **** 
 161:c:\program files\daisytoolchain\arm-none-eabi\include\c++\10.2.1\bits\random.h ****       public:
 162:c:\program files\daisytoolchain\arm-none-eabi\include\c++\10.2.1\bits\random.h **** 	_Adaptor(_Engine& __g)
 163:c:\program files\daisytoolchain\arm-none-eabi\include\c++\10.2.1\bits\random.h **** 	: _M_g(__g) { }
 164:c:\program files\daisytoolchain\arm-none-eabi\include\c++\10.2.1\bits\random.h **** 
 165:c:\program files\daisytoolchain\arm-none-eabi\include\c++\10.2.1\bits\random.h **** 	_DInputType
 166:c:\program files\daisytoolchain\arm-none-eabi\include\c++\10.2.1\bits\random.h **** 	min() const
 167:c:\program files\daisytoolchain\arm-none-eabi\include\c++\10.2.1\bits\random.h **** 	{ return _DInputType(0); }
 168:c:\program files\daisytoolchain\arm-none-eabi\include\c++\10.2.1\bits\random.h **** 
 169:c:\program files\daisytoolchain\arm-none-eabi\include\c++\10.2.1\bits\random.h **** 	_DInputType
 170:c:\program files\daisytoolchain\arm-none-eabi\include\c++\10.2.1\bits\random.h **** 	max() const
 171:c:\program files\daisytoolchain\arm-none-eabi\include\c++\10.2.1\bits\random.h **** 	{ return _DInputType(1); }
 172:c:\program files\daisytoolchain\arm-none-eabi\include\c++\10.2.1\bits\random.h **** 
 173:c:\program files\daisytoolchain\arm-none-eabi\include\c++\10.2.1\bits\random.h **** 	/*
 174:c:\program files\daisytoolchain\arm-none-eabi\include\c++\10.2.1\bits\random.h **** 	 * Converts a value generated by the adapted random number generator
 175:c:\program files\daisytoolchain\arm-none-eabi\include\c++\10.2.1\bits\random.h **** 	 * into a value in the input domain for the dependent random number
 176:c:\program files\daisytoolchain\arm-none-eabi\include\c++\10.2.1\bits\random.h **** 	 * distribution.
 177:c:\program files\daisytoolchain\arm-none-eabi\include\c++\10.2.1\bits\random.h **** 	 */
 178:c:\program files\daisytoolchain\arm-none-eabi\include\c++\10.2.1\bits\random.h **** 	_DInputType
 179:c:\program files\daisytoolchain\arm-none-eabi\include\c++\10.2.1\bits\random.h **** 	operator()()
 180:c:\program files\daisytoolchain\arm-none-eabi\include\c++\10.2.1\bits\random.h **** 	{
 181:c:\program files\daisytoolchain\arm-none-eabi\include\c++\10.2.1\bits\random.h **** 	  return std::generate_canonical<_DInputType,
 182:c:\program files\daisytoolchain\arm-none-eabi\include\c++\10.2.1\bits\random.h **** 	                            std::numeric_limits<_DInputType>::digits,
ARM GAS  C:\Users\wuru8\AppData\Local\Temp\cczVuj1W.s 			page 20


 183:c:\program files\daisytoolchain\arm-none-eabi\include\c++\10.2.1\bits\random.h **** 	                            _Engine>(_M_g);
 184:c:\program files\daisytoolchain\arm-none-eabi\include\c++\10.2.1\bits\random.h **** 	}
 185:c:\program files\daisytoolchain\arm-none-eabi\include\c++\10.2.1\bits\random.h **** 
 186:c:\program files\daisytoolchain\arm-none-eabi\include\c++\10.2.1\bits\random.h ****       private:
 187:c:\program files\daisytoolchain\arm-none-eabi\include\c++\10.2.1\bits\random.h **** 	_Engine& _M_g;
 188:c:\program files\daisytoolchain\arm-none-eabi\include\c++\10.2.1\bits\random.h ****       };
 189:c:\program files\daisytoolchain\arm-none-eabi\include\c++\10.2.1\bits\random.h **** 
 190:c:\program files\daisytoolchain\arm-none-eabi\include\c++\10.2.1\bits\random.h ****     template<typename _Sseq>
 191:c:\program files\daisytoolchain\arm-none-eabi\include\c++\10.2.1\bits\random.h ****       using __seed_seq_generate_t = decltype(
 192:c:\program files\daisytoolchain\arm-none-eabi\include\c++\10.2.1\bits\random.h **** 	  std::declval<_Sseq&>().generate(std::declval<uint_least32_t*>(),
 193:c:\program files\daisytoolchain\arm-none-eabi\include\c++\10.2.1\bits\random.h **** 					  std::declval<uint_least32_t*>()));
 194:c:\program files\daisytoolchain\arm-none-eabi\include\c++\10.2.1\bits\random.h **** 
 195:c:\program files\daisytoolchain\arm-none-eabi\include\c++\10.2.1\bits\random.h ****     // Detect whether _Sseq is a valid seed sequence for
 196:c:\program files\daisytoolchain\arm-none-eabi\include\c++\10.2.1\bits\random.h ****     // a random number engine _Engine with result type _Res.
 197:c:\program files\daisytoolchain\arm-none-eabi\include\c++\10.2.1\bits\random.h ****     template<typename _Sseq, typename _Engine, typename _Res,
 198:c:\program files\daisytoolchain\arm-none-eabi\include\c++\10.2.1\bits\random.h **** 	     typename _GenerateCheck = __seed_seq_generate_t<_Sseq>>
 199:c:\program files\daisytoolchain\arm-none-eabi\include\c++\10.2.1\bits\random.h ****       using __is_seed_seq = __and_<
 200:c:\program files\daisytoolchain\arm-none-eabi\include\c++\10.2.1\bits\random.h ****         __not_<is_same<__remove_cvref_t<_Sseq>, _Engine>>,
 201:c:\program files\daisytoolchain\arm-none-eabi\include\c++\10.2.1\bits\random.h **** 	is_unsigned<typename _Sseq::result_type>,
 202:c:\program files\daisytoolchain\arm-none-eabi\include\c++\10.2.1\bits\random.h **** 	__not_<is_convertible<_Sseq, _Res>>
 203:c:\program files\daisytoolchain\arm-none-eabi\include\c++\10.2.1\bits\random.h ****       >;
 204:c:\program files\daisytoolchain\arm-none-eabi\include\c++\10.2.1\bits\random.h **** 
 205:c:\program files\daisytoolchain\arm-none-eabi\include\c++\10.2.1\bits\random.h ****   } // namespace __detail
 206:c:\program files\daisytoolchain\arm-none-eabi\include\c++\10.2.1\bits\random.h **** 
 207:c:\program files\daisytoolchain\arm-none-eabi\include\c++\10.2.1\bits\random.h ****   /**
 208:c:\program files\daisytoolchain\arm-none-eabi\include\c++\10.2.1\bits\random.h ****    * @addtogroup random_generators Random Number Generators
 209:c:\program files\daisytoolchain\arm-none-eabi\include\c++\10.2.1\bits\random.h ****    * @ingroup random
 210:c:\program files\daisytoolchain\arm-none-eabi\include\c++\10.2.1\bits\random.h ****    *
 211:c:\program files\daisytoolchain\arm-none-eabi\include\c++\10.2.1\bits\random.h ****    * These classes define objects which provide random or pseudorandom
 212:c:\program files\daisytoolchain\arm-none-eabi\include\c++\10.2.1\bits\random.h ****    * numbers, either from a discrete or a continuous interval.  The
 213:c:\program files\daisytoolchain\arm-none-eabi\include\c++\10.2.1\bits\random.h ****    * random number generator supplied as a part of this library are
 214:c:\program files\daisytoolchain\arm-none-eabi\include\c++\10.2.1\bits\random.h ****    * all uniform random number generators which provide a sequence of
 215:c:\program files\daisytoolchain\arm-none-eabi\include\c++\10.2.1\bits\random.h ****    * random number uniformly distributed over their range.
 216:c:\program files\daisytoolchain\arm-none-eabi\include\c++\10.2.1\bits\random.h ****    *
 217:c:\program files\daisytoolchain\arm-none-eabi\include\c++\10.2.1\bits\random.h ****    * A number generator is a function object with an operator() that
 218:c:\program files\daisytoolchain\arm-none-eabi\include\c++\10.2.1\bits\random.h ****    * takes zero arguments and returns a number.
 219:c:\program files\daisytoolchain\arm-none-eabi\include\c++\10.2.1\bits\random.h ****    *
 220:c:\program files\daisytoolchain\arm-none-eabi\include\c++\10.2.1\bits\random.h ****    * A compliant random number generator must satisfy the following
 221:c:\program files\daisytoolchain\arm-none-eabi\include\c++\10.2.1\bits\random.h ****    * requirements.  <table border=1 cellpadding=10 cellspacing=0>
 222:c:\program files\daisytoolchain\arm-none-eabi\include\c++\10.2.1\bits\random.h ****    * <caption align=top>Random Number Generator Requirements</caption>
 223:c:\program files\daisytoolchain\arm-none-eabi\include\c++\10.2.1\bits\random.h ****    * <tr><td>To be documented.</td></tr> </table>
 224:c:\program files\daisytoolchain\arm-none-eabi\include\c++\10.2.1\bits\random.h ****    *
 225:c:\program files\daisytoolchain\arm-none-eabi\include\c++\10.2.1\bits\random.h ****    * @{
 226:c:\program files\daisytoolchain\arm-none-eabi\include\c++\10.2.1\bits\random.h ****    */
 227:c:\program files\daisytoolchain\arm-none-eabi\include\c++\10.2.1\bits\random.h **** 
 228:c:\program files\daisytoolchain\arm-none-eabi\include\c++\10.2.1\bits\random.h ****   /**
 229:c:\program files\daisytoolchain\arm-none-eabi\include\c++\10.2.1\bits\random.h ****    * @brief A model of a linear congruential random number generator.
 230:c:\program files\daisytoolchain\arm-none-eabi\include\c++\10.2.1\bits\random.h ****    *
 231:c:\program files\daisytoolchain\arm-none-eabi\include\c++\10.2.1\bits\random.h ****    * A random number generator that produces pseudorandom numbers via
 232:c:\program files\daisytoolchain\arm-none-eabi\include\c++\10.2.1\bits\random.h ****    * linear function:
 233:c:\program files\daisytoolchain\arm-none-eabi\include\c++\10.2.1\bits\random.h ****    * @f[
 234:c:\program files\daisytoolchain\arm-none-eabi\include\c++\10.2.1\bits\random.h ****    *     x_{i+1}\leftarrow(ax_{i} + c) \bmod m 
 235:c:\program files\daisytoolchain\arm-none-eabi\include\c++\10.2.1\bits\random.h ****    * @f]
 236:c:\program files\daisytoolchain\arm-none-eabi\include\c++\10.2.1\bits\random.h ****    *
 237:c:\program files\daisytoolchain\arm-none-eabi\include\c++\10.2.1\bits\random.h ****    * The template parameter @p _UIntType must be an unsigned integral type
 238:c:\program files\daisytoolchain\arm-none-eabi\include\c++\10.2.1\bits\random.h ****    * large enough to store values up to (__m-1). If the template parameter
 239:c:\program files\daisytoolchain\arm-none-eabi\include\c++\10.2.1\bits\random.h ****    * @p __m is 0, the modulus @p __m used is
ARM GAS  C:\Users\wuru8\AppData\Local\Temp\cczVuj1W.s 			page 21


 240:c:\program files\daisytoolchain\arm-none-eabi\include\c++\10.2.1\bits\random.h ****    * std::numeric_limits<_UIntType>::max() plus 1. Otherwise, the template
 241:c:\program files\daisytoolchain\arm-none-eabi\include\c++\10.2.1\bits\random.h ****    * parameters @p __a and @p __c must be less than @p __m.
 242:c:\program files\daisytoolchain\arm-none-eabi\include\c++\10.2.1\bits\random.h ****    *
 243:c:\program files\daisytoolchain\arm-none-eabi\include\c++\10.2.1\bits\random.h ****    * The size of the state is @f$1@f$.
 244:c:\program files\daisytoolchain\arm-none-eabi\include\c++\10.2.1\bits\random.h ****    */
 245:c:\program files\daisytoolchain\arm-none-eabi\include\c++\10.2.1\bits\random.h ****   template<typename _UIntType, _UIntType __a, _UIntType __c, _UIntType __m>
 246:c:\program files\daisytoolchain\arm-none-eabi\include\c++\10.2.1\bits\random.h ****     class linear_congruential_engine
 247:c:\program files\daisytoolchain\arm-none-eabi\include\c++\10.2.1\bits\random.h ****     {
 248:c:\program files\daisytoolchain\arm-none-eabi\include\c++\10.2.1\bits\random.h ****       static_assert(std::is_unsigned<_UIntType>::value,
 249:c:\program files\daisytoolchain\arm-none-eabi\include\c++\10.2.1\bits\random.h **** 		    "result_type must be an unsigned integral type");
 250:c:\program files\daisytoolchain\arm-none-eabi\include\c++\10.2.1\bits\random.h ****       static_assert(__m == 0u || (__a < __m && __c < __m),
 251:c:\program files\daisytoolchain\arm-none-eabi\include\c++\10.2.1\bits\random.h **** 		    "template argument substituting __m out of bounds");
 252:c:\program files\daisytoolchain\arm-none-eabi\include\c++\10.2.1\bits\random.h **** 
 253:c:\program files\daisytoolchain\arm-none-eabi\include\c++\10.2.1\bits\random.h ****       template<typename _Sseq>
 254:c:\program files\daisytoolchain\arm-none-eabi\include\c++\10.2.1\bits\random.h **** 	using _If_seed_seq = typename enable_if<__detail::__is_seed_seq<
 255:c:\program files\daisytoolchain\arm-none-eabi\include\c++\10.2.1\bits\random.h **** 	  _Sseq, linear_congruential_engine, _UIntType>::value>::type;
 256:c:\program files\daisytoolchain\arm-none-eabi\include\c++\10.2.1\bits\random.h **** 
 257:c:\program files\daisytoolchain\arm-none-eabi\include\c++\10.2.1\bits\random.h ****     public:
 258:c:\program files\daisytoolchain\arm-none-eabi\include\c++\10.2.1\bits\random.h ****       /** The type of the generated random value. */
 259:c:\program files\daisytoolchain\arm-none-eabi\include\c++\10.2.1\bits\random.h ****       typedef _UIntType result_type;
 260:c:\program files\daisytoolchain\arm-none-eabi\include\c++\10.2.1\bits\random.h **** 
 261:c:\program files\daisytoolchain\arm-none-eabi\include\c++\10.2.1\bits\random.h ****       /** The multiplier. */
 262:c:\program files\daisytoolchain\arm-none-eabi\include\c++\10.2.1\bits\random.h ****       static constexpr result_type multiplier   = __a;
 263:c:\program files\daisytoolchain\arm-none-eabi\include\c++\10.2.1\bits\random.h ****       /** An increment. */
 264:c:\program files\daisytoolchain\arm-none-eabi\include\c++\10.2.1\bits\random.h ****       static constexpr result_type increment    = __c;
 265:c:\program files\daisytoolchain\arm-none-eabi\include\c++\10.2.1\bits\random.h ****       /** The modulus. */
 266:c:\program files\daisytoolchain\arm-none-eabi\include\c++\10.2.1\bits\random.h ****       static constexpr result_type modulus      = __m;
 267:c:\program files\daisytoolchain\arm-none-eabi\include\c++\10.2.1\bits\random.h ****       static constexpr result_type default_seed = 1u;
 268:c:\program files\daisytoolchain\arm-none-eabi\include\c++\10.2.1\bits\random.h **** 
 269:c:\program files\daisytoolchain\arm-none-eabi\include\c++\10.2.1\bits\random.h ****       /**
 270:c:\program files\daisytoolchain\arm-none-eabi\include\c++\10.2.1\bits\random.h ****        * @brief Constructs a %linear_congruential_engine random number
 271:c:\program files\daisytoolchain\arm-none-eabi\include\c++\10.2.1\bits\random.h ****        *        generator engine with seed 1.
 272:c:\program files\daisytoolchain\arm-none-eabi\include\c++\10.2.1\bits\random.h ****        */
 273:c:\program files\daisytoolchain\arm-none-eabi\include\c++\10.2.1\bits\random.h ****       linear_congruential_engine() : linear_congruential_engine(default_seed)
 274:c:\program files\daisytoolchain\arm-none-eabi\include\c++\10.2.1\bits\random.h ****       { }
 275:c:\program files\daisytoolchain\arm-none-eabi\include\c++\10.2.1\bits\random.h **** 
 276:c:\program files\daisytoolchain\arm-none-eabi\include\c++\10.2.1\bits\random.h ****       /**
 277:c:\program files\daisytoolchain\arm-none-eabi\include\c++\10.2.1\bits\random.h ****        * @brief Constructs a %linear_congruential_engine random number
 278:c:\program files\daisytoolchain\arm-none-eabi\include\c++\10.2.1\bits\random.h ****        *        generator engine with seed @p __s.  The default seed value
 279:c:\program files\daisytoolchain\arm-none-eabi\include\c++\10.2.1\bits\random.h ****        *        is 1.
 280:c:\program files\daisytoolchain\arm-none-eabi\include\c++\10.2.1\bits\random.h ****        *
 281:c:\program files\daisytoolchain\arm-none-eabi\include\c++\10.2.1\bits\random.h ****        * @param __s The initial seed value.
 282:c:\program files\daisytoolchain\arm-none-eabi\include\c++\10.2.1\bits\random.h ****        */
 283:c:\program files\daisytoolchain\arm-none-eabi\include\c++\10.2.1\bits\random.h ****       explicit
 284:c:\program files\daisytoolchain\arm-none-eabi\include\c++\10.2.1\bits\random.h ****       linear_congruential_engine(result_type __s)
 285:c:\program files\daisytoolchain\arm-none-eabi\include\c++\10.2.1\bits\random.h ****       { seed(__s); }
 286:c:\program files\daisytoolchain\arm-none-eabi\include\c++\10.2.1\bits\random.h **** 
 287:c:\program files\daisytoolchain\arm-none-eabi\include\c++\10.2.1\bits\random.h ****       /**
 288:c:\program files\daisytoolchain\arm-none-eabi\include\c++\10.2.1\bits\random.h ****        * @brief Constructs a %linear_congruential_engine random number
 289:c:\program files\daisytoolchain\arm-none-eabi\include\c++\10.2.1\bits\random.h ****        *        generator engine seeded from the seed sequence @p __q.
 290:c:\program files\daisytoolchain\arm-none-eabi\include\c++\10.2.1\bits\random.h ****        *
 291:c:\program files\daisytoolchain\arm-none-eabi\include\c++\10.2.1\bits\random.h ****        * @param __q the seed sequence.
 292:c:\program files\daisytoolchain\arm-none-eabi\include\c++\10.2.1\bits\random.h ****        */
 293:c:\program files\daisytoolchain\arm-none-eabi\include\c++\10.2.1\bits\random.h ****       template<typename _Sseq, typename = _If_seed_seq<_Sseq>>
 294:c:\program files\daisytoolchain\arm-none-eabi\include\c++\10.2.1\bits\random.h ****         explicit
 295:c:\program files\daisytoolchain\arm-none-eabi\include\c++\10.2.1\bits\random.h ****         linear_congruential_engine(_Sseq& __q)
 296:c:\program files\daisytoolchain\arm-none-eabi\include\c++\10.2.1\bits\random.h ****         { seed(__q); }
ARM GAS  C:\Users\wuru8\AppData\Local\Temp\cczVuj1W.s 			page 22


 297:c:\program files\daisytoolchain\arm-none-eabi\include\c++\10.2.1\bits\random.h **** 
 298:c:\program files\daisytoolchain\arm-none-eabi\include\c++\10.2.1\bits\random.h ****       /**
 299:c:\program files\daisytoolchain\arm-none-eabi\include\c++\10.2.1\bits\random.h ****        * @brief Reseeds the %linear_congruential_engine random number generator
 300:c:\program files\daisytoolchain\arm-none-eabi\include\c++\10.2.1\bits\random.h ****        *        engine sequence to the seed @p __s.
 301:c:\program files\daisytoolchain\arm-none-eabi\include\c++\10.2.1\bits\random.h ****        *
 302:c:\program files\daisytoolchain\arm-none-eabi\include\c++\10.2.1\bits\random.h ****        * @param __s The new seed.
 303:c:\program files\daisytoolchain\arm-none-eabi\include\c++\10.2.1\bits\random.h ****        */
 304:c:\program files\daisytoolchain\arm-none-eabi\include\c++\10.2.1\bits\random.h ****       void
 305:c:\program files\daisytoolchain\arm-none-eabi\include\c++\10.2.1\bits\random.h ****       seed(result_type __s = default_seed);
 306:c:\program files\daisytoolchain\arm-none-eabi\include\c++\10.2.1\bits\random.h **** 
 307:c:\program files\daisytoolchain\arm-none-eabi\include\c++\10.2.1\bits\random.h ****       /**
 308:c:\program files\daisytoolchain\arm-none-eabi\include\c++\10.2.1\bits\random.h ****        * @brief Reseeds the %linear_congruential_engine random number generator
 309:c:\program files\daisytoolchain\arm-none-eabi\include\c++\10.2.1\bits\random.h ****        *        engine
 310:c:\program files\daisytoolchain\arm-none-eabi\include\c++\10.2.1\bits\random.h ****        * sequence using values from the seed sequence @p __q.
 311:c:\program files\daisytoolchain\arm-none-eabi\include\c++\10.2.1\bits\random.h ****        *
 312:c:\program files\daisytoolchain\arm-none-eabi\include\c++\10.2.1\bits\random.h ****        * @param __q the seed sequence.
 313:c:\program files\daisytoolchain\arm-none-eabi\include\c++\10.2.1\bits\random.h ****        */
 314:c:\program files\daisytoolchain\arm-none-eabi\include\c++\10.2.1\bits\random.h ****       template<typename _Sseq>
 315:c:\program files\daisytoolchain\arm-none-eabi\include\c++\10.2.1\bits\random.h ****         _If_seed_seq<_Sseq>
 316:c:\program files\daisytoolchain\arm-none-eabi\include\c++\10.2.1\bits\random.h ****         seed(_Sseq& __q);
 317:c:\program files\daisytoolchain\arm-none-eabi\include\c++\10.2.1\bits\random.h **** 
 318:c:\program files\daisytoolchain\arm-none-eabi\include\c++\10.2.1\bits\random.h ****       /**
 319:c:\program files\daisytoolchain\arm-none-eabi\include\c++\10.2.1\bits\random.h ****        * @brief Gets the smallest possible value in the output range.
 320:c:\program files\daisytoolchain\arm-none-eabi\include\c++\10.2.1\bits\random.h ****        *
 321:c:\program files\daisytoolchain\arm-none-eabi\include\c++\10.2.1\bits\random.h ****        * The minimum depends on the @p __c parameter: if it is zero, the
 322:c:\program files\daisytoolchain\arm-none-eabi\include\c++\10.2.1\bits\random.h ****        * minimum generated must be > 0, otherwise 0 is allowed.
 323:c:\program files\daisytoolchain\arm-none-eabi\include\c++\10.2.1\bits\random.h ****        */
 324:c:\program files\daisytoolchain\arm-none-eabi\include\c++\10.2.1\bits\random.h ****       static constexpr result_type
 325:c:\program files\daisytoolchain\arm-none-eabi\include\c++\10.2.1\bits\random.h ****       min()
 326:c:\program files\daisytoolchain\arm-none-eabi\include\c++\10.2.1\bits\random.h ****       { return __c == 0u ? 1u : 0u; }
 327:c:\program files\daisytoolchain\arm-none-eabi\include\c++\10.2.1\bits\random.h **** 
 328:c:\program files\daisytoolchain\arm-none-eabi\include\c++\10.2.1\bits\random.h ****       /**
 329:c:\program files\daisytoolchain\arm-none-eabi\include\c++\10.2.1\bits\random.h ****        * @brief Gets the largest possible value in the output range.
 330:c:\program files\daisytoolchain\arm-none-eabi\include\c++\10.2.1\bits\random.h ****        */
 331:c:\program files\daisytoolchain\arm-none-eabi\include\c++\10.2.1\bits\random.h ****       static constexpr result_type
 332:c:\program files\daisytoolchain\arm-none-eabi\include\c++\10.2.1\bits\random.h ****       max()
 333:c:\program files\daisytoolchain\arm-none-eabi\include\c++\10.2.1\bits\random.h ****       { return __m - 1u; }
 334:c:\program files\daisytoolchain\arm-none-eabi\include\c++\10.2.1\bits\random.h **** 
 335:c:\program files\daisytoolchain\arm-none-eabi\include\c++\10.2.1\bits\random.h ****       /**
 336:c:\program files\daisytoolchain\arm-none-eabi\include\c++\10.2.1\bits\random.h ****        * @brief Discard a sequence of random numbers.
 337:c:\program files\daisytoolchain\arm-none-eabi\include\c++\10.2.1\bits\random.h ****        */
 338:c:\program files\daisytoolchain\arm-none-eabi\include\c++\10.2.1\bits\random.h ****       void
 339:c:\program files\daisytoolchain\arm-none-eabi\include\c++\10.2.1\bits\random.h ****       discard(unsigned long long __z)
 340:c:\program files\daisytoolchain\arm-none-eabi\include\c++\10.2.1\bits\random.h ****       {
 341:c:\program files\daisytoolchain\arm-none-eabi\include\c++\10.2.1\bits\random.h **** 	for (; __z != 0ULL; --__z)
 342:c:\program files\daisytoolchain\arm-none-eabi\include\c++\10.2.1\bits\random.h **** 	  (*this)();
 343:c:\program files\daisytoolchain\arm-none-eabi\include\c++\10.2.1\bits\random.h ****       }
 344:c:\program files\daisytoolchain\arm-none-eabi\include\c++\10.2.1\bits\random.h **** 
 345:c:\program files\daisytoolchain\arm-none-eabi\include\c++\10.2.1\bits\random.h ****       /**
 346:c:\program files\daisytoolchain\arm-none-eabi\include\c++\10.2.1\bits\random.h ****        * @brief Gets the next random number in the sequence.
 347:c:\program files\daisytoolchain\arm-none-eabi\include\c++\10.2.1\bits\random.h ****        */
 348:c:\program files\daisytoolchain\arm-none-eabi\include\c++\10.2.1\bits\random.h ****       result_type
 349:c:\program files\daisytoolchain\arm-none-eabi\include\c++\10.2.1\bits\random.h ****       operator()()
 350:c:\program files\daisytoolchain\arm-none-eabi\include\c++\10.2.1\bits\random.h ****       {
 351:c:\program files\daisytoolchain\arm-none-eabi\include\c++\10.2.1\bits\random.h **** 	_M_x = __detail::__mod<_UIntType, __m, __a, __c>(_M_x);
 352:c:\program files\daisytoolchain\arm-none-eabi\include\c++\10.2.1\bits\random.h **** 	return _M_x;
 353:c:\program files\daisytoolchain\arm-none-eabi\include\c++\10.2.1\bits\random.h ****       }
ARM GAS  C:\Users\wuru8\AppData\Local\Temp\cczVuj1W.s 			page 23


 354:c:\program files\daisytoolchain\arm-none-eabi\include\c++\10.2.1\bits\random.h **** 
 355:c:\program files\daisytoolchain\arm-none-eabi\include\c++\10.2.1\bits\random.h ****       /**
 356:c:\program files\daisytoolchain\arm-none-eabi\include\c++\10.2.1\bits\random.h ****        * @brief Compares two linear congruential random number generator
 357:c:\program files\daisytoolchain\arm-none-eabi\include\c++\10.2.1\bits\random.h ****        * objects of the same type for equality.
 358:c:\program files\daisytoolchain\arm-none-eabi\include\c++\10.2.1\bits\random.h ****        *
 359:c:\program files\daisytoolchain\arm-none-eabi\include\c++\10.2.1\bits\random.h ****        * @param __lhs A linear congruential random number generator object.
 360:c:\program files\daisytoolchain\arm-none-eabi\include\c++\10.2.1\bits\random.h ****        * @param __rhs Another linear congruential random number generator
 361:c:\program files\daisytoolchain\arm-none-eabi\include\c++\10.2.1\bits\random.h ****        *              object.
 362:c:\program files\daisytoolchain\arm-none-eabi\include\c++\10.2.1\bits\random.h ****        *
 363:c:\program files\daisytoolchain\arm-none-eabi\include\c++\10.2.1\bits\random.h ****        * @returns true if the infinite sequences of generated values
 364:c:\program files\daisytoolchain\arm-none-eabi\include\c++\10.2.1\bits\random.h ****        *          would be equal, false otherwise.
 365:c:\program files\daisytoolchain\arm-none-eabi\include\c++\10.2.1\bits\random.h ****        */
 366:c:\program files\daisytoolchain\arm-none-eabi\include\c++\10.2.1\bits\random.h ****       friend bool
 367:c:\program files\daisytoolchain\arm-none-eabi\include\c++\10.2.1\bits\random.h ****       operator==(const linear_congruential_engine& __lhs,
 368:c:\program files\daisytoolchain\arm-none-eabi\include\c++\10.2.1\bits\random.h **** 		 const linear_congruential_engine& __rhs)
 369:c:\program files\daisytoolchain\arm-none-eabi\include\c++\10.2.1\bits\random.h ****       { return __lhs._M_x == __rhs._M_x; }
 370:c:\program files\daisytoolchain\arm-none-eabi\include\c++\10.2.1\bits\random.h **** 
 371:c:\program files\daisytoolchain\arm-none-eabi\include\c++\10.2.1\bits\random.h ****       /**
 372:c:\program files\daisytoolchain\arm-none-eabi\include\c++\10.2.1\bits\random.h ****        * @brief Writes the textual representation of the state x(i) of x to
 373:c:\program files\daisytoolchain\arm-none-eabi\include\c++\10.2.1\bits\random.h ****        *        @p __os.
 374:c:\program files\daisytoolchain\arm-none-eabi\include\c++\10.2.1\bits\random.h ****        *
 375:c:\program files\daisytoolchain\arm-none-eabi\include\c++\10.2.1\bits\random.h ****        * @param __os  The output stream.
 376:c:\program files\daisytoolchain\arm-none-eabi\include\c++\10.2.1\bits\random.h ****        * @param __lcr A % linear_congruential_engine random number generator.
 377:c:\program files\daisytoolchain\arm-none-eabi\include\c++\10.2.1\bits\random.h ****        * @returns __os.
 378:c:\program files\daisytoolchain\arm-none-eabi\include\c++\10.2.1\bits\random.h ****        */
 379:c:\program files\daisytoolchain\arm-none-eabi\include\c++\10.2.1\bits\random.h ****       template<typename _UIntType1, _UIntType1 __a1, _UIntType1 __c1,
 380:c:\program files\daisytoolchain\arm-none-eabi\include\c++\10.2.1\bits\random.h **** 	       _UIntType1 __m1, typename _CharT, typename _Traits>
 381:c:\program files\daisytoolchain\arm-none-eabi\include\c++\10.2.1\bits\random.h **** 	friend std::basic_ostream<_CharT, _Traits>&
 382:c:\program files\daisytoolchain\arm-none-eabi\include\c++\10.2.1\bits\random.h **** 	operator<<(std::basic_ostream<_CharT, _Traits>& __os,
 383:c:\program files\daisytoolchain\arm-none-eabi\include\c++\10.2.1\bits\random.h **** 		   const std::linear_congruential_engine<_UIntType1,
 384:c:\program files\daisytoolchain\arm-none-eabi\include\c++\10.2.1\bits\random.h **** 		   __a1, __c1, __m1>& __lcr);
 385:c:\program files\daisytoolchain\arm-none-eabi\include\c++\10.2.1\bits\random.h **** 
 386:c:\program files\daisytoolchain\arm-none-eabi\include\c++\10.2.1\bits\random.h ****       /**
 387:c:\program files\daisytoolchain\arm-none-eabi\include\c++\10.2.1\bits\random.h ****        * @brief Sets the state of the engine by reading its textual
 388:c:\program files\daisytoolchain\arm-none-eabi\include\c++\10.2.1\bits\random.h ****        *        representation from @p __is.
 389:c:\program files\daisytoolchain\arm-none-eabi\include\c++\10.2.1\bits\random.h ****        *
 390:c:\program files\daisytoolchain\arm-none-eabi\include\c++\10.2.1\bits\random.h ****        * The textual representation must have been previously written using
 391:c:\program files\daisytoolchain\arm-none-eabi\include\c++\10.2.1\bits\random.h ****        * an output stream whose imbued locale and whose type's template
 392:c:\program files\daisytoolchain\arm-none-eabi\include\c++\10.2.1\bits\random.h ****        * specialization arguments _CharT and _Traits were the same as those
 393:c:\program files\daisytoolchain\arm-none-eabi\include\c++\10.2.1\bits\random.h ****        * of @p __is.
 394:c:\program files\daisytoolchain\arm-none-eabi\include\c++\10.2.1\bits\random.h ****        *
 395:c:\program files\daisytoolchain\arm-none-eabi\include\c++\10.2.1\bits\random.h ****        * @param __is  The input stream.
 396:c:\program files\daisytoolchain\arm-none-eabi\include\c++\10.2.1\bits\random.h ****        * @param __lcr A % linear_congruential_engine random number generator.
 397:c:\program files\daisytoolchain\arm-none-eabi\include\c++\10.2.1\bits\random.h ****        * @returns __is.
 398:c:\program files\daisytoolchain\arm-none-eabi\include\c++\10.2.1\bits\random.h ****        */
 399:c:\program files\daisytoolchain\arm-none-eabi\include\c++\10.2.1\bits\random.h ****       template<typename _UIntType1, _UIntType1 __a1, _UIntType1 __c1,
 400:c:\program files\daisytoolchain\arm-none-eabi\include\c++\10.2.1\bits\random.h **** 	       _UIntType1 __m1, typename _CharT, typename _Traits>
 401:c:\program files\daisytoolchain\arm-none-eabi\include\c++\10.2.1\bits\random.h **** 	friend std::basic_istream<_CharT, _Traits>&
 402:c:\program files\daisytoolchain\arm-none-eabi\include\c++\10.2.1\bits\random.h **** 	operator>>(std::basic_istream<_CharT, _Traits>& __is,
 403:c:\program files\daisytoolchain\arm-none-eabi\include\c++\10.2.1\bits\random.h **** 		   std::linear_congruential_engine<_UIntType1, __a1,
 404:c:\program files\daisytoolchain\arm-none-eabi\include\c++\10.2.1\bits\random.h **** 		   __c1, __m1>& __lcr);
 405:c:\program files\daisytoolchain\arm-none-eabi\include\c++\10.2.1\bits\random.h **** 
 406:c:\program files\daisytoolchain\arm-none-eabi\include\c++\10.2.1\bits\random.h ****     private:
 407:c:\program files\daisytoolchain\arm-none-eabi\include\c++\10.2.1\bits\random.h ****       _UIntType _M_x;
 408:c:\program files\daisytoolchain\arm-none-eabi\include\c++\10.2.1\bits\random.h ****     };
 409:c:\program files\daisytoolchain\arm-none-eabi\include\c++\10.2.1\bits\random.h **** 
 410:c:\program files\daisytoolchain\arm-none-eabi\include\c++\10.2.1\bits\random.h ****   /**
ARM GAS  C:\Users\wuru8\AppData\Local\Temp\cczVuj1W.s 			page 24


 411:c:\program files\daisytoolchain\arm-none-eabi\include\c++\10.2.1\bits\random.h ****    * @brief Compares two linear congruential random number generator
 412:c:\program files\daisytoolchain\arm-none-eabi\include\c++\10.2.1\bits\random.h ****    * objects of the same type for inequality.
 413:c:\program files\daisytoolchain\arm-none-eabi\include\c++\10.2.1\bits\random.h ****    *
 414:c:\program files\daisytoolchain\arm-none-eabi\include\c++\10.2.1\bits\random.h ****    * @param __lhs A linear congruential random number generator object.
 415:c:\program files\daisytoolchain\arm-none-eabi\include\c++\10.2.1\bits\random.h ****    * @param __rhs Another linear congruential random number generator
 416:c:\program files\daisytoolchain\arm-none-eabi\include\c++\10.2.1\bits\random.h ****    *              object.
 417:c:\program files\daisytoolchain\arm-none-eabi\include\c++\10.2.1\bits\random.h ****    *
 418:c:\program files\daisytoolchain\arm-none-eabi\include\c++\10.2.1\bits\random.h ****    * @returns true if the infinite sequences of generated values
 419:c:\program files\daisytoolchain\arm-none-eabi\include\c++\10.2.1\bits\random.h ****    *          would be different, false otherwise.
 420:c:\program files\daisytoolchain\arm-none-eabi\include\c++\10.2.1\bits\random.h ****    */
 421:c:\program files\daisytoolchain\arm-none-eabi\include\c++\10.2.1\bits\random.h ****   template<typename _UIntType, _UIntType __a, _UIntType __c, _UIntType __m>
 422:c:\program files\daisytoolchain\arm-none-eabi\include\c++\10.2.1\bits\random.h ****     inline bool
 423:c:\program files\daisytoolchain\arm-none-eabi\include\c++\10.2.1\bits\random.h ****     operator!=(const std::linear_congruential_engine<_UIntType, __a,
 424:c:\program files\daisytoolchain\arm-none-eabi\include\c++\10.2.1\bits\random.h **** 	       __c, __m>& __lhs,
 425:c:\program files\daisytoolchain\arm-none-eabi\include\c++\10.2.1\bits\random.h **** 	       const std::linear_congruential_engine<_UIntType, __a,
 426:c:\program files\daisytoolchain\arm-none-eabi\include\c++\10.2.1\bits\random.h **** 	       __c, __m>& __rhs)
 427:c:\program files\daisytoolchain\arm-none-eabi\include\c++\10.2.1\bits\random.h ****     { return !(__lhs == __rhs); }
 428:c:\program files\daisytoolchain\arm-none-eabi\include\c++\10.2.1\bits\random.h **** 
 429:c:\program files\daisytoolchain\arm-none-eabi\include\c++\10.2.1\bits\random.h **** 
 430:c:\program files\daisytoolchain\arm-none-eabi\include\c++\10.2.1\bits\random.h ****   /**
 431:c:\program files\daisytoolchain\arm-none-eabi\include\c++\10.2.1\bits\random.h ****    * A generalized feedback shift register discrete random number generator.
 432:c:\program files\daisytoolchain\arm-none-eabi\include\c++\10.2.1\bits\random.h ****    *
 433:c:\program files\daisytoolchain\arm-none-eabi\include\c++\10.2.1\bits\random.h ****    * This algorithm avoids multiplication and division and is designed to be
 434:c:\program files\daisytoolchain\arm-none-eabi\include\c++\10.2.1\bits\random.h ****    * friendly to a pipelined architecture.  If the parameters are chosen
 435:c:\program files\daisytoolchain\arm-none-eabi\include\c++\10.2.1\bits\random.h ****    * correctly, this generator will produce numbers with a very long period and
 436:c:\program files\daisytoolchain\arm-none-eabi\include\c++\10.2.1\bits\random.h ****    * fairly good apparent entropy, although still not cryptographically strong.
 437:c:\program files\daisytoolchain\arm-none-eabi\include\c++\10.2.1\bits\random.h ****    *
 438:c:\program files\daisytoolchain\arm-none-eabi\include\c++\10.2.1\bits\random.h ****    * The best way to use this generator is with the predefined mt19937 class.
 439:c:\program files\daisytoolchain\arm-none-eabi\include\c++\10.2.1\bits\random.h ****    *
 440:c:\program files\daisytoolchain\arm-none-eabi\include\c++\10.2.1\bits\random.h ****    * This algorithm was originally invented by Makoto Matsumoto and
 441:c:\program files\daisytoolchain\arm-none-eabi\include\c++\10.2.1\bits\random.h ****    * Takuji Nishimura.
 442:c:\program files\daisytoolchain\arm-none-eabi\include\c++\10.2.1\bits\random.h ****    *
 443:c:\program files\daisytoolchain\arm-none-eabi\include\c++\10.2.1\bits\random.h ****    * @tparam __w  Word size, the number of bits in each element of 
 444:c:\program files\daisytoolchain\arm-none-eabi\include\c++\10.2.1\bits\random.h ****    *              the state vector.
 445:c:\program files\daisytoolchain\arm-none-eabi\include\c++\10.2.1\bits\random.h ****    * @tparam __n  The degree of recursion.
 446:c:\program files\daisytoolchain\arm-none-eabi\include\c++\10.2.1\bits\random.h ****    * @tparam __m  The period parameter.
 447:c:\program files\daisytoolchain\arm-none-eabi\include\c++\10.2.1\bits\random.h ****    * @tparam __r  The separation point bit index.
 448:c:\program files\daisytoolchain\arm-none-eabi\include\c++\10.2.1\bits\random.h ****    * @tparam __a  The last row of the twist matrix.
 449:c:\program files\daisytoolchain\arm-none-eabi\include\c++\10.2.1\bits\random.h ****    * @tparam __u  The first right-shift tempering matrix parameter.
 450:c:\program files\daisytoolchain\arm-none-eabi\include\c++\10.2.1\bits\random.h ****    * @tparam __d  The first right-shift tempering matrix mask.
 451:c:\program files\daisytoolchain\arm-none-eabi\include\c++\10.2.1\bits\random.h ****    * @tparam __s  The first left-shift tempering matrix parameter.
 452:c:\program files\daisytoolchain\arm-none-eabi\include\c++\10.2.1\bits\random.h ****    * @tparam __b  The first left-shift tempering matrix mask.
 453:c:\program files\daisytoolchain\arm-none-eabi\include\c++\10.2.1\bits\random.h ****    * @tparam __t  The second left-shift tempering matrix parameter.
 454:c:\program files\daisytoolchain\arm-none-eabi\include\c++\10.2.1\bits\random.h ****    * @tparam __c  The second left-shift tempering matrix mask.
 455:c:\program files\daisytoolchain\arm-none-eabi\include\c++\10.2.1\bits\random.h ****    * @tparam __l  The second right-shift tempering matrix parameter.
 456:c:\program files\daisytoolchain\arm-none-eabi\include\c++\10.2.1\bits\random.h ****    * @tparam __f  Initialization multiplier.
 457:c:\program files\daisytoolchain\arm-none-eabi\include\c++\10.2.1\bits\random.h ****    */
 458:c:\program files\daisytoolchain\arm-none-eabi\include\c++\10.2.1\bits\random.h ****   template<typename _UIntType, size_t __w,
 459:c:\program files\daisytoolchain\arm-none-eabi\include\c++\10.2.1\bits\random.h **** 	   size_t __n, size_t __m, size_t __r,
 460:c:\program files\daisytoolchain\arm-none-eabi\include\c++\10.2.1\bits\random.h **** 	   _UIntType __a, size_t __u, _UIntType __d, size_t __s,
 461:c:\program files\daisytoolchain\arm-none-eabi\include\c++\10.2.1\bits\random.h **** 	   _UIntType __b, size_t __t,
 462:c:\program files\daisytoolchain\arm-none-eabi\include\c++\10.2.1\bits\random.h **** 	   _UIntType __c, size_t __l, _UIntType __f>
 463:c:\program files\daisytoolchain\arm-none-eabi\include\c++\10.2.1\bits\random.h ****     class mersenne_twister_engine
 464:c:\program files\daisytoolchain\arm-none-eabi\include\c++\10.2.1\bits\random.h ****     {
 465:c:\program files\daisytoolchain\arm-none-eabi\include\c++\10.2.1\bits\random.h ****       static_assert(std::is_unsigned<_UIntType>::value,
 466:c:\program files\daisytoolchain\arm-none-eabi\include\c++\10.2.1\bits\random.h **** 		    "result_type must be an unsigned integral type");
 467:c:\program files\daisytoolchain\arm-none-eabi\include\c++\10.2.1\bits\random.h ****       static_assert(1u <= __m && __m <= __n,
ARM GAS  C:\Users\wuru8\AppData\Local\Temp\cczVuj1W.s 			page 25


 468:c:\program files\daisytoolchain\arm-none-eabi\include\c++\10.2.1\bits\random.h **** 		    "template argument substituting __m out of bounds");
 469:c:\program files\daisytoolchain\arm-none-eabi\include\c++\10.2.1\bits\random.h ****       static_assert(__r <= __w, "template argument substituting "
 470:c:\program files\daisytoolchain\arm-none-eabi\include\c++\10.2.1\bits\random.h **** 		    "__r out of bound");
 471:c:\program files\daisytoolchain\arm-none-eabi\include\c++\10.2.1\bits\random.h ****       static_assert(__u <= __w, "template argument substituting "
 472:c:\program files\daisytoolchain\arm-none-eabi\include\c++\10.2.1\bits\random.h **** 		    "__u out of bound");
 473:c:\program files\daisytoolchain\arm-none-eabi\include\c++\10.2.1\bits\random.h ****       static_assert(__s <= __w, "template argument substituting "
 474:c:\program files\daisytoolchain\arm-none-eabi\include\c++\10.2.1\bits\random.h **** 		    "__s out of bound");
 475:c:\program files\daisytoolchain\arm-none-eabi\include\c++\10.2.1\bits\random.h ****       static_assert(__t <= __w, "template argument substituting "
 476:c:\program files\daisytoolchain\arm-none-eabi\include\c++\10.2.1\bits\random.h **** 		    "__t out of bound");
 477:c:\program files\daisytoolchain\arm-none-eabi\include\c++\10.2.1\bits\random.h ****       static_assert(__l <= __w, "template argument substituting "
 478:c:\program files\daisytoolchain\arm-none-eabi\include\c++\10.2.1\bits\random.h **** 		    "__l out of bound");
 479:c:\program files\daisytoolchain\arm-none-eabi\include\c++\10.2.1\bits\random.h ****       static_assert(__w <= std::numeric_limits<_UIntType>::digits,
 480:c:\program files\daisytoolchain\arm-none-eabi\include\c++\10.2.1\bits\random.h **** 		    "template argument substituting __w out of bound");
 481:c:\program files\daisytoolchain\arm-none-eabi\include\c++\10.2.1\bits\random.h ****       static_assert(__a <= (__detail::_Shift<_UIntType, __w>::__value - 1),
 482:c:\program files\daisytoolchain\arm-none-eabi\include\c++\10.2.1\bits\random.h **** 		    "template argument substituting __a out of bound");
 483:c:\program files\daisytoolchain\arm-none-eabi\include\c++\10.2.1\bits\random.h ****       static_assert(__b <= (__detail::_Shift<_UIntType, __w>::__value - 1),
 484:c:\program files\daisytoolchain\arm-none-eabi\include\c++\10.2.1\bits\random.h **** 		    "template argument substituting __b out of bound");
 485:c:\program files\daisytoolchain\arm-none-eabi\include\c++\10.2.1\bits\random.h ****       static_assert(__c <= (__detail::_Shift<_UIntType, __w>::__value - 1),
 486:c:\program files\daisytoolchain\arm-none-eabi\include\c++\10.2.1\bits\random.h **** 		    "template argument substituting __c out of bound");
 487:c:\program files\daisytoolchain\arm-none-eabi\include\c++\10.2.1\bits\random.h ****       static_assert(__d <= (__detail::_Shift<_UIntType, __w>::__value - 1),
 488:c:\program files\daisytoolchain\arm-none-eabi\include\c++\10.2.1\bits\random.h **** 		    "template argument substituting __d out of bound");
 489:c:\program files\daisytoolchain\arm-none-eabi\include\c++\10.2.1\bits\random.h ****       static_assert(__f <= (__detail::_Shift<_UIntType, __w>::__value - 1),
 490:c:\program files\daisytoolchain\arm-none-eabi\include\c++\10.2.1\bits\random.h **** 		    "template argument substituting __f out of bound");
 491:c:\program files\daisytoolchain\arm-none-eabi\include\c++\10.2.1\bits\random.h **** 
 492:c:\program files\daisytoolchain\arm-none-eabi\include\c++\10.2.1\bits\random.h ****       template<typename _Sseq>
 493:c:\program files\daisytoolchain\arm-none-eabi\include\c++\10.2.1\bits\random.h **** 	using _If_seed_seq = typename enable_if<__detail::__is_seed_seq<
 494:c:\program files\daisytoolchain\arm-none-eabi\include\c++\10.2.1\bits\random.h **** 	  _Sseq, mersenne_twister_engine, _UIntType>::value>::type;
 495:c:\program files\daisytoolchain\arm-none-eabi\include\c++\10.2.1\bits\random.h **** 
 496:c:\program files\daisytoolchain\arm-none-eabi\include\c++\10.2.1\bits\random.h ****     public:
 497:c:\program files\daisytoolchain\arm-none-eabi\include\c++\10.2.1\bits\random.h ****       /** The type of the generated random value. */
 498:c:\program files\daisytoolchain\arm-none-eabi\include\c++\10.2.1\bits\random.h ****       typedef _UIntType result_type;
 499:c:\program files\daisytoolchain\arm-none-eabi\include\c++\10.2.1\bits\random.h **** 
 500:c:\program files\daisytoolchain\arm-none-eabi\include\c++\10.2.1\bits\random.h ****       // parameter values
 501:c:\program files\daisytoolchain\arm-none-eabi\include\c++\10.2.1\bits\random.h ****       static constexpr size_t      word_size                 = __w;
 502:c:\program files\daisytoolchain\arm-none-eabi\include\c++\10.2.1\bits\random.h ****       static constexpr size_t      state_size                = __n;
 503:c:\program files\daisytoolchain\arm-none-eabi\include\c++\10.2.1\bits\random.h ****       static constexpr size_t      shift_size                = __m;
 504:c:\program files\daisytoolchain\arm-none-eabi\include\c++\10.2.1\bits\random.h ****       static constexpr size_t      mask_bits                 = __r;
 505:c:\program files\daisytoolchain\arm-none-eabi\include\c++\10.2.1\bits\random.h ****       static constexpr result_type xor_mask                  = __a;
 506:c:\program files\daisytoolchain\arm-none-eabi\include\c++\10.2.1\bits\random.h ****       static constexpr size_t      tempering_u               = __u;
 507:c:\program files\daisytoolchain\arm-none-eabi\include\c++\10.2.1\bits\random.h ****       static constexpr result_type tempering_d               = __d;
 508:c:\program files\daisytoolchain\arm-none-eabi\include\c++\10.2.1\bits\random.h ****       static constexpr size_t      tempering_s               = __s;
 509:c:\program files\daisytoolchain\arm-none-eabi\include\c++\10.2.1\bits\random.h ****       static constexpr result_type tempering_b               = __b;
 510:c:\program files\daisytoolchain\arm-none-eabi\include\c++\10.2.1\bits\random.h ****       static constexpr size_t      tempering_t               = __t;
 511:c:\program files\daisytoolchain\arm-none-eabi\include\c++\10.2.1\bits\random.h ****       static constexpr result_type tempering_c               = __c;
 512:c:\program files\daisytoolchain\arm-none-eabi\include\c++\10.2.1\bits\random.h ****       static constexpr size_t      tempering_l               = __l;
 513:c:\program files\daisytoolchain\arm-none-eabi\include\c++\10.2.1\bits\random.h ****       static constexpr result_type initialization_multiplier = __f;
 514:c:\program files\daisytoolchain\arm-none-eabi\include\c++\10.2.1\bits\random.h ****       static constexpr result_type default_seed = 5489u;
 515:c:\program files\daisytoolchain\arm-none-eabi\include\c++\10.2.1\bits\random.h **** 
 516:c:\program files\daisytoolchain\arm-none-eabi\include\c++\10.2.1\bits\random.h ****       // constructors and member functions
 517:c:\program files\daisytoolchain\arm-none-eabi\include\c++\10.2.1\bits\random.h **** 
 518:c:\program files\daisytoolchain\arm-none-eabi\include\c++\10.2.1\bits\random.h ****       mersenne_twister_engine() : mersenne_twister_engine(default_seed) { }
 519:c:\program files\daisytoolchain\arm-none-eabi\include\c++\10.2.1\bits\random.h **** 
 520:c:\program files\daisytoolchain\arm-none-eabi\include\c++\10.2.1\bits\random.h ****       explicit
 521:c:\program files\daisytoolchain\arm-none-eabi\include\c++\10.2.1\bits\random.h ****       mersenne_twister_engine(result_type __sd)
 522:c:\program files\daisytoolchain\arm-none-eabi\include\c++\10.2.1\bits\random.h ****       { seed(__sd); }
 523:c:\program files\daisytoolchain\arm-none-eabi\include\c++\10.2.1\bits\random.h **** 
 524:c:\program files\daisytoolchain\arm-none-eabi\include\c++\10.2.1\bits\random.h ****       /**
ARM GAS  C:\Users\wuru8\AppData\Local\Temp\cczVuj1W.s 			page 26


 525:c:\program files\daisytoolchain\arm-none-eabi\include\c++\10.2.1\bits\random.h ****        * @brief Constructs a %mersenne_twister_engine random number generator
 526:c:\program files\daisytoolchain\arm-none-eabi\include\c++\10.2.1\bits\random.h ****        *        engine seeded from the seed sequence @p __q.
 527:c:\program files\daisytoolchain\arm-none-eabi\include\c++\10.2.1\bits\random.h ****        *
 528:c:\program files\daisytoolchain\arm-none-eabi\include\c++\10.2.1\bits\random.h ****        * @param __q the seed sequence.
 529:c:\program files\daisytoolchain\arm-none-eabi\include\c++\10.2.1\bits\random.h ****        */
 530:c:\program files\daisytoolchain\arm-none-eabi\include\c++\10.2.1\bits\random.h ****       template<typename _Sseq, typename = _If_seed_seq<_Sseq>>
 531:c:\program files\daisytoolchain\arm-none-eabi\include\c++\10.2.1\bits\random.h ****         explicit
 532:c:\program files\daisytoolchain\arm-none-eabi\include\c++\10.2.1\bits\random.h ****         mersenne_twister_engine(_Sseq& __q)
 533:c:\program files\daisytoolchain\arm-none-eabi\include\c++\10.2.1\bits\random.h ****         { seed(__q); }
 534:c:\program files\daisytoolchain\arm-none-eabi\include\c++\10.2.1\bits\random.h **** 
 535:c:\program files\daisytoolchain\arm-none-eabi\include\c++\10.2.1\bits\random.h ****       void
 536:c:\program files\daisytoolchain\arm-none-eabi\include\c++\10.2.1\bits\random.h ****       seed(result_type __sd = default_seed);
 537:c:\program files\daisytoolchain\arm-none-eabi\include\c++\10.2.1\bits\random.h **** 
 538:c:\program files\daisytoolchain\arm-none-eabi\include\c++\10.2.1\bits\random.h ****       template<typename _Sseq>
 539:c:\program files\daisytoolchain\arm-none-eabi\include\c++\10.2.1\bits\random.h ****         _If_seed_seq<_Sseq>
 540:c:\program files\daisytoolchain\arm-none-eabi\include\c++\10.2.1\bits\random.h ****         seed(_Sseq& __q);
 541:c:\program files\daisytoolchain\arm-none-eabi\include\c++\10.2.1\bits\random.h **** 
 542:c:\program files\daisytoolchain\arm-none-eabi\include\c++\10.2.1\bits\random.h ****       /**
 543:c:\program files\daisytoolchain\arm-none-eabi\include\c++\10.2.1\bits\random.h ****        * @brief Gets the smallest possible value in the output range.
 544:c:\program files\daisytoolchain\arm-none-eabi\include\c++\10.2.1\bits\random.h ****        */
 545:c:\program files\daisytoolchain\arm-none-eabi\include\c++\10.2.1\bits\random.h ****       static constexpr result_type
 546:c:\program files\daisytoolchain\arm-none-eabi\include\c++\10.2.1\bits\random.h ****       min()
 547:c:\program files\daisytoolchain\arm-none-eabi\include\c++\10.2.1\bits\random.h ****       { return 0; }
 548:c:\program files\daisytoolchain\arm-none-eabi\include\c++\10.2.1\bits\random.h **** 
 549:c:\program files\daisytoolchain\arm-none-eabi\include\c++\10.2.1\bits\random.h ****       /**
 550:c:\program files\daisytoolchain\arm-none-eabi\include\c++\10.2.1\bits\random.h ****        * @brief Gets the largest possible value in the output range.
 551:c:\program files\daisytoolchain\arm-none-eabi\include\c++\10.2.1\bits\random.h ****        */
 552:c:\program files\daisytoolchain\arm-none-eabi\include\c++\10.2.1\bits\random.h ****       static constexpr result_type
 553:c:\program files\daisytoolchain\arm-none-eabi\include\c++\10.2.1\bits\random.h ****       max()
 554:c:\program files\daisytoolchain\arm-none-eabi\include\c++\10.2.1\bits\random.h ****       { return __detail::_Shift<_UIntType, __w>::__value - 1; }
 555:c:\program files\daisytoolchain\arm-none-eabi\include\c++\10.2.1\bits\random.h **** 
 556:c:\program files\daisytoolchain\arm-none-eabi\include\c++\10.2.1\bits\random.h ****       /**
 557:c:\program files\daisytoolchain\arm-none-eabi\include\c++\10.2.1\bits\random.h ****        * @brief Discard a sequence of random numbers.
 558:c:\program files\daisytoolchain\arm-none-eabi\include\c++\10.2.1\bits\random.h ****        */
 559:c:\program files\daisytoolchain\arm-none-eabi\include\c++\10.2.1\bits\random.h ****       void
 560:c:\program files\daisytoolchain\arm-none-eabi\include\c++\10.2.1\bits\random.h ****       discard(unsigned long long __z);
 561:c:\program files\daisytoolchain\arm-none-eabi\include\c++\10.2.1\bits\random.h **** 
 562:c:\program files\daisytoolchain\arm-none-eabi\include\c++\10.2.1\bits\random.h ****       result_type
 563:c:\program files\daisytoolchain\arm-none-eabi\include\c++\10.2.1\bits\random.h ****       operator()();
 564:c:\program files\daisytoolchain\arm-none-eabi\include\c++\10.2.1\bits\random.h **** 
 565:c:\program files\daisytoolchain\arm-none-eabi\include\c++\10.2.1\bits\random.h ****       /**
 566:c:\program files\daisytoolchain\arm-none-eabi\include\c++\10.2.1\bits\random.h ****        * @brief Compares two % mersenne_twister_engine random number generator
 567:c:\program files\daisytoolchain\arm-none-eabi\include\c++\10.2.1\bits\random.h ****        *        objects of the same type for equality.
 568:c:\program files\daisytoolchain\arm-none-eabi\include\c++\10.2.1\bits\random.h ****        *
 569:c:\program files\daisytoolchain\arm-none-eabi\include\c++\10.2.1\bits\random.h ****        * @param __lhs A % mersenne_twister_engine random number generator
 570:c:\program files\daisytoolchain\arm-none-eabi\include\c++\10.2.1\bits\random.h ****        *              object.
 571:c:\program files\daisytoolchain\arm-none-eabi\include\c++\10.2.1\bits\random.h ****        * @param __rhs Another % mersenne_twister_engine random number
 572:c:\program files\daisytoolchain\arm-none-eabi\include\c++\10.2.1\bits\random.h ****        *              generator object.
 573:c:\program files\daisytoolchain\arm-none-eabi\include\c++\10.2.1\bits\random.h ****        *
 574:c:\program files\daisytoolchain\arm-none-eabi\include\c++\10.2.1\bits\random.h ****        * @returns true if the infinite sequences of generated values
 575:c:\program files\daisytoolchain\arm-none-eabi\include\c++\10.2.1\bits\random.h ****        *          would be equal, false otherwise.
 576:c:\program files\daisytoolchain\arm-none-eabi\include\c++\10.2.1\bits\random.h ****        */
 577:c:\program files\daisytoolchain\arm-none-eabi\include\c++\10.2.1\bits\random.h ****       friend bool
 578:c:\program files\daisytoolchain\arm-none-eabi\include\c++\10.2.1\bits\random.h ****       operator==(const mersenne_twister_engine& __lhs,
 579:c:\program files\daisytoolchain\arm-none-eabi\include\c++\10.2.1\bits\random.h **** 		 const mersenne_twister_engine& __rhs)
 580:c:\program files\daisytoolchain\arm-none-eabi\include\c++\10.2.1\bits\random.h ****       { return (std::equal(__lhs._M_x, __lhs._M_x + state_size, __rhs._M_x)
 581:c:\program files\daisytoolchain\arm-none-eabi\include\c++\10.2.1\bits\random.h **** 		&& __lhs._M_p == __rhs._M_p); }
ARM GAS  C:\Users\wuru8\AppData\Local\Temp\cczVuj1W.s 			page 27


 582:c:\program files\daisytoolchain\arm-none-eabi\include\c++\10.2.1\bits\random.h **** 
 583:c:\program files\daisytoolchain\arm-none-eabi\include\c++\10.2.1\bits\random.h ****       /**
 584:c:\program files\daisytoolchain\arm-none-eabi\include\c++\10.2.1\bits\random.h ****        * @brief Inserts the current state of a % mersenne_twister_engine
 585:c:\program files\daisytoolchain\arm-none-eabi\include\c++\10.2.1\bits\random.h ****        *        random number generator engine @p __x into the output stream
 586:c:\program files\daisytoolchain\arm-none-eabi\include\c++\10.2.1\bits\random.h ****        *        @p __os.
 587:c:\program files\daisytoolchain\arm-none-eabi\include\c++\10.2.1\bits\random.h ****        *
 588:c:\program files\daisytoolchain\arm-none-eabi\include\c++\10.2.1\bits\random.h ****        * @param __os An output stream.
 589:c:\program files\daisytoolchain\arm-none-eabi\include\c++\10.2.1\bits\random.h ****        * @param __x  A % mersenne_twister_engine random number generator
 590:c:\program files\daisytoolchain\arm-none-eabi\include\c++\10.2.1\bits\random.h ****        *             engine.
 591:c:\program files\daisytoolchain\arm-none-eabi\include\c++\10.2.1\bits\random.h ****        *
 592:c:\program files\daisytoolchain\arm-none-eabi\include\c++\10.2.1\bits\random.h ****        * @returns The output stream with the state of @p __x inserted or in
 593:c:\program files\daisytoolchain\arm-none-eabi\include\c++\10.2.1\bits\random.h ****        * an error state.
 594:c:\program files\daisytoolchain\arm-none-eabi\include\c++\10.2.1\bits\random.h ****        */
 595:c:\program files\daisytoolchain\arm-none-eabi\include\c++\10.2.1\bits\random.h ****       template<typename _UIntType1,
 596:c:\program files\daisytoolchain\arm-none-eabi\include\c++\10.2.1\bits\random.h **** 	       size_t __w1, size_t __n1,
 597:c:\program files\daisytoolchain\arm-none-eabi\include\c++\10.2.1\bits\random.h **** 	       size_t __m1, size_t __r1,
 598:c:\program files\daisytoolchain\arm-none-eabi\include\c++\10.2.1\bits\random.h **** 	       _UIntType1 __a1, size_t __u1,
 599:c:\program files\daisytoolchain\arm-none-eabi\include\c++\10.2.1\bits\random.h **** 	       _UIntType1 __d1, size_t __s1,
 600:c:\program files\daisytoolchain\arm-none-eabi\include\c++\10.2.1\bits\random.h **** 	       _UIntType1 __b1, size_t __t1,
 601:c:\program files\daisytoolchain\arm-none-eabi\include\c++\10.2.1\bits\random.h **** 	       _UIntType1 __c1, size_t __l1, _UIntType1 __f1,
 602:c:\program files\daisytoolchain\arm-none-eabi\include\c++\10.2.1\bits\random.h **** 	       typename _CharT, typename _Traits>
 603:c:\program files\daisytoolchain\arm-none-eabi\include\c++\10.2.1\bits\random.h **** 	friend std::basic_ostream<_CharT, _Traits>&
 604:c:\program files\daisytoolchain\arm-none-eabi\include\c++\10.2.1\bits\random.h **** 	operator<<(std::basic_ostream<_CharT, _Traits>& __os,
 605:c:\program files\daisytoolchain\arm-none-eabi\include\c++\10.2.1\bits\random.h **** 		   const std::mersenne_twister_engine<_UIntType1, __w1, __n1,
 606:c:\program files\daisytoolchain\arm-none-eabi\include\c++\10.2.1\bits\random.h **** 		   __m1, __r1, __a1, __u1, __d1, __s1, __b1, __t1, __c1,
 607:c:\program files\daisytoolchain\arm-none-eabi\include\c++\10.2.1\bits\random.h **** 		   __l1, __f1>& __x);
 608:c:\program files\daisytoolchain\arm-none-eabi\include\c++\10.2.1\bits\random.h **** 
 609:c:\program files\daisytoolchain\arm-none-eabi\include\c++\10.2.1\bits\random.h ****       /**
 610:c:\program files\daisytoolchain\arm-none-eabi\include\c++\10.2.1\bits\random.h ****        * @brief Extracts the current state of a % mersenne_twister_engine
 611:c:\program files\daisytoolchain\arm-none-eabi\include\c++\10.2.1\bits\random.h ****        *        random number generator engine @p __x from the input stream
 612:c:\program files\daisytoolchain\arm-none-eabi\include\c++\10.2.1\bits\random.h ****        *        @p __is.
 613:c:\program files\daisytoolchain\arm-none-eabi\include\c++\10.2.1\bits\random.h ****        *
 614:c:\program files\daisytoolchain\arm-none-eabi\include\c++\10.2.1\bits\random.h ****        * @param __is An input stream.
 615:c:\program files\daisytoolchain\arm-none-eabi\include\c++\10.2.1\bits\random.h ****        * @param __x  A % mersenne_twister_engine random number generator
 616:c:\program files\daisytoolchain\arm-none-eabi\include\c++\10.2.1\bits\random.h ****        *             engine.
 617:c:\program files\daisytoolchain\arm-none-eabi\include\c++\10.2.1\bits\random.h ****        *
 618:c:\program files\daisytoolchain\arm-none-eabi\include\c++\10.2.1\bits\random.h ****        * @returns The input stream with the state of @p __x extracted or in
 619:c:\program files\daisytoolchain\arm-none-eabi\include\c++\10.2.1\bits\random.h ****        * an error state.
 620:c:\program files\daisytoolchain\arm-none-eabi\include\c++\10.2.1\bits\random.h ****        */
 621:c:\program files\daisytoolchain\arm-none-eabi\include\c++\10.2.1\bits\random.h ****       template<typename _UIntType1,
 622:c:\program files\daisytoolchain\arm-none-eabi\include\c++\10.2.1\bits\random.h **** 	       size_t __w1, size_t __n1,
 623:c:\program files\daisytoolchain\arm-none-eabi\include\c++\10.2.1\bits\random.h **** 	       size_t __m1, size_t __r1,
 624:c:\program files\daisytoolchain\arm-none-eabi\include\c++\10.2.1\bits\random.h **** 	       _UIntType1 __a1, size_t __u1,
 625:c:\program files\daisytoolchain\arm-none-eabi\include\c++\10.2.1\bits\random.h **** 	       _UIntType1 __d1, size_t __s1,
 626:c:\program files\daisytoolchain\arm-none-eabi\include\c++\10.2.1\bits\random.h **** 	       _UIntType1 __b1, size_t __t1,
 627:c:\program files\daisytoolchain\arm-none-eabi\include\c++\10.2.1\bits\random.h **** 	       _UIntType1 __c1, size_t __l1, _UIntType1 __f1,
 628:c:\program files\daisytoolchain\arm-none-eabi\include\c++\10.2.1\bits\random.h **** 	       typename _CharT, typename _Traits>
 629:c:\program files\daisytoolchain\arm-none-eabi\include\c++\10.2.1\bits\random.h **** 	friend std::basic_istream<_CharT, _Traits>&
 630:c:\program files\daisytoolchain\arm-none-eabi\include\c++\10.2.1\bits\random.h **** 	operator>>(std::basic_istream<_CharT, _Traits>& __is,
 631:c:\program files\daisytoolchain\arm-none-eabi\include\c++\10.2.1\bits\random.h **** 		   std::mersenne_twister_engine<_UIntType1, __w1, __n1, __m1,
 632:c:\program files\daisytoolchain\arm-none-eabi\include\c++\10.2.1\bits\random.h **** 		   __r1, __a1, __u1, __d1, __s1, __b1, __t1, __c1,
 633:c:\program files\daisytoolchain\arm-none-eabi\include\c++\10.2.1\bits\random.h **** 		   __l1, __f1>& __x);
 634:c:\program files\daisytoolchain\arm-none-eabi\include\c++\10.2.1\bits\random.h **** 
 635:c:\program files\daisytoolchain\arm-none-eabi\include\c++\10.2.1\bits\random.h ****     private:
 636:c:\program files\daisytoolchain\arm-none-eabi\include\c++\10.2.1\bits\random.h ****       void _M_gen_rand();
 637:c:\program files\daisytoolchain\arm-none-eabi\include\c++\10.2.1\bits\random.h **** 
 638:c:\program files\daisytoolchain\arm-none-eabi\include\c++\10.2.1\bits\random.h ****       _UIntType _M_x[state_size];
ARM GAS  C:\Users\wuru8\AppData\Local\Temp\cczVuj1W.s 			page 28


 639:c:\program files\daisytoolchain\arm-none-eabi\include\c++\10.2.1\bits\random.h ****       size_t    _M_p;
 640:c:\program files\daisytoolchain\arm-none-eabi\include\c++\10.2.1\bits\random.h ****     };
 641:c:\program files\daisytoolchain\arm-none-eabi\include\c++\10.2.1\bits\random.h **** 
 642:c:\program files\daisytoolchain\arm-none-eabi\include\c++\10.2.1\bits\random.h ****   /**
 643:c:\program files\daisytoolchain\arm-none-eabi\include\c++\10.2.1\bits\random.h ****    * @brief Compares two % mersenne_twister_engine random number generator
 644:c:\program files\daisytoolchain\arm-none-eabi\include\c++\10.2.1\bits\random.h ****    *        objects of the same type for inequality.
 645:c:\program files\daisytoolchain\arm-none-eabi\include\c++\10.2.1\bits\random.h ****    *
 646:c:\program files\daisytoolchain\arm-none-eabi\include\c++\10.2.1\bits\random.h ****    * @param __lhs A % mersenne_twister_engine random number generator
 647:c:\program files\daisytoolchain\arm-none-eabi\include\c++\10.2.1\bits\random.h ****    *              object.
 648:c:\program files\daisytoolchain\arm-none-eabi\include\c++\10.2.1\bits\random.h ****    * @param __rhs Another % mersenne_twister_engine random number
 649:c:\program files\daisytoolchain\arm-none-eabi\include\c++\10.2.1\bits\random.h ****    *              generator object.
 650:c:\program files\daisytoolchain\arm-none-eabi\include\c++\10.2.1\bits\random.h ****    *
 651:c:\program files\daisytoolchain\arm-none-eabi\include\c++\10.2.1\bits\random.h ****    * @returns true if the infinite sequences of generated values
 652:c:\program files\daisytoolchain\arm-none-eabi\include\c++\10.2.1\bits\random.h ****    *          would be different, false otherwise.
 653:c:\program files\daisytoolchain\arm-none-eabi\include\c++\10.2.1\bits\random.h ****    */
 654:c:\program files\daisytoolchain\arm-none-eabi\include\c++\10.2.1\bits\random.h ****   template<typename _UIntType, size_t __w,
 655:c:\program files\daisytoolchain\arm-none-eabi\include\c++\10.2.1\bits\random.h **** 	   size_t __n, size_t __m, size_t __r,
 656:c:\program files\daisytoolchain\arm-none-eabi\include\c++\10.2.1\bits\random.h **** 	   _UIntType __a, size_t __u, _UIntType __d, size_t __s,
 657:c:\program files\daisytoolchain\arm-none-eabi\include\c++\10.2.1\bits\random.h **** 	   _UIntType __b, size_t __t,
 658:c:\program files\daisytoolchain\arm-none-eabi\include\c++\10.2.1\bits\random.h **** 	   _UIntType __c, size_t __l, _UIntType __f>
 659:c:\program files\daisytoolchain\arm-none-eabi\include\c++\10.2.1\bits\random.h ****     inline bool
 660:c:\program files\daisytoolchain\arm-none-eabi\include\c++\10.2.1\bits\random.h ****     operator!=(const std::mersenne_twister_engine<_UIntType, __w, __n, __m,
 661:c:\program files\daisytoolchain\arm-none-eabi\include\c++\10.2.1\bits\random.h **** 	       __r, __a, __u, __d, __s, __b, __t, __c, __l, __f>& __lhs,
 662:c:\program files\daisytoolchain\arm-none-eabi\include\c++\10.2.1\bits\random.h **** 	       const std::mersenne_twister_engine<_UIntType, __w, __n, __m,
 663:c:\program files\daisytoolchain\arm-none-eabi\include\c++\10.2.1\bits\random.h **** 	       __r, __a, __u, __d, __s, __b, __t, __c, __l, __f>& __rhs)
 664:c:\program files\daisytoolchain\arm-none-eabi\include\c++\10.2.1\bits\random.h ****     { return !(__lhs == __rhs); }
 665:c:\program files\daisytoolchain\arm-none-eabi\include\c++\10.2.1\bits\random.h **** 
 666:c:\program files\daisytoolchain\arm-none-eabi\include\c++\10.2.1\bits\random.h **** 
 667:c:\program files\daisytoolchain\arm-none-eabi\include\c++\10.2.1\bits\random.h ****   /**
 668:c:\program files\daisytoolchain\arm-none-eabi\include\c++\10.2.1\bits\random.h ****    * @brief The Marsaglia-Zaman generator.
 669:c:\program files\daisytoolchain\arm-none-eabi\include\c++\10.2.1\bits\random.h ****    *
 670:c:\program files\daisytoolchain\arm-none-eabi\include\c++\10.2.1\bits\random.h ****    * This is a model of a Generalized Fibonacci discrete random number
 671:c:\program files\daisytoolchain\arm-none-eabi\include\c++\10.2.1\bits\random.h ****    * generator, sometimes referred to as the SWC generator.
 672:c:\program files\daisytoolchain\arm-none-eabi\include\c++\10.2.1\bits\random.h ****    *
 673:c:\program files\daisytoolchain\arm-none-eabi\include\c++\10.2.1\bits\random.h ****    * A discrete random number generator that produces pseudorandom
 674:c:\program files\daisytoolchain\arm-none-eabi\include\c++\10.2.1\bits\random.h ****    * numbers using:
 675:c:\program files\daisytoolchain\arm-none-eabi\include\c++\10.2.1\bits\random.h ****    * @f[
 676:c:\program files\daisytoolchain\arm-none-eabi\include\c++\10.2.1\bits\random.h ****    *     x_{i}\leftarrow(x_{i - s} - x_{i - r} - carry_{i-1}) \bmod m 
 677:c:\program files\daisytoolchain\arm-none-eabi\include\c++\10.2.1\bits\random.h ****    * @f]
 678:c:\program files\daisytoolchain\arm-none-eabi\include\c++\10.2.1\bits\random.h ****    *
 679:c:\program files\daisytoolchain\arm-none-eabi\include\c++\10.2.1\bits\random.h ****    * The size of the state is @f$r@f$
 680:c:\program files\daisytoolchain\arm-none-eabi\include\c++\10.2.1\bits\random.h ****    * and the maximum period of the generator is @f$(m^r - m^s - 1)@f$.
 681:c:\program files\daisytoolchain\arm-none-eabi\include\c++\10.2.1\bits\random.h ****    */
 682:c:\program files\daisytoolchain\arm-none-eabi\include\c++\10.2.1\bits\random.h ****   template<typename _UIntType, size_t __w, size_t __s, size_t __r>
 683:c:\program files\daisytoolchain\arm-none-eabi\include\c++\10.2.1\bits\random.h ****     class subtract_with_carry_engine
 684:c:\program files\daisytoolchain\arm-none-eabi\include\c++\10.2.1\bits\random.h ****     {
 685:c:\program files\daisytoolchain\arm-none-eabi\include\c++\10.2.1\bits\random.h ****       static_assert(std::is_unsigned<_UIntType>::value,
 686:c:\program files\daisytoolchain\arm-none-eabi\include\c++\10.2.1\bits\random.h **** 		    "result_type must be an unsigned integral type");
 687:c:\program files\daisytoolchain\arm-none-eabi\include\c++\10.2.1\bits\random.h ****       static_assert(0u < __s && __s < __r,
 688:c:\program files\daisytoolchain\arm-none-eabi\include\c++\10.2.1\bits\random.h **** 		    "0 < s < r");
 689:c:\program files\daisytoolchain\arm-none-eabi\include\c++\10.2.1\bits\random.h ****       static_assert(0u < __w && __w <= std::numeric_limits<_UIntType>::digits,
 690:c:\program files\daisytoolchain\arm-none-eabi\include\c++\10.2.1\bits\random.h **** 		    "template argument substituting __w out of bounds");
 691:c:\program files\daisytoolchain\arm-none-eabi\include\c++\10.2.1\bits\random.h **** 
 692:c:\program files\daisytoolchain\arm-none-eabi\include\c++\10.2.1\bits\random.h ****       template<typename _Sseq>
 693:c:\program files\daisytoolchain\arm-none-eabi\include\c++\10.2.1\bits\random.h **** 	using _If_seed_seq = typename enable_if<__detail::__is_seed_seq<
 694:c:\program files\daisytoolchain\arm-none-eabi\include\c++\10.2.1\bits\random.h **** 	  _Sseq, subtract_with_carry_engine, _UIntType>::value>::type;
 695:c:\program files\daisytoolchain\arm-none-eabi\include\c++\10.2.1\bits\random.h **** 
ARM GAS  C:\Users\wuru8\AppData\Local\Temp\cczVuj1W.s 			page 29


 696:c:\program files\daisytoolchain\arm-none-eabi\include\c++\10.2.1\bits\random.h ****     public:
 697:c:\program files\daisytoolchain\arm-none-eabi\include\c++\10.2.1\bits\random.h ****       /** The type of the generated random value. */
 698:c:\program files\daisytoolchain\arm-none-eabi\include\c++\10.2.1\bits\random.h ****       typedef _UIntType result_type;
 699:c:\program files\daisytoolchain\arm-none-eabi\include\c++\10.2.1\bits\random.h **** 
 700:c:\program files\daisytoolchain\arm-none-eabi\include\c++\10.2.1\bits\random.h ****       // parameter values
 701:c:\program files\daisytoolchain\arm-none-eabi\include\c++\10.2.1\bits\random.h ****       static constexpr size_t      word_size    = __w;
 702:c:\program files\daisytoolchain\arm-none-eabi\include\c++\10.2.1\bits\random.h ****       static constexpr size_t      short_lag    = __s;
 703:c:\program files\daisytoolchain\arm-none-eabi\include\c++\10.2.1\bits\random.h ****       static constexpr size_t      long_lag     = __r;
 704:c:\program files\daisytoolchain\arm-none-eabi\include\c++\10.2.1\bits\random.h ****       static constexpr result_type default_seed = 19780503u;
 705:c:\program files\daisytoolchain\arm-none-eabi\include\c++\10.2.1\bits\random.h **** 
 706:c:\program files\daisytoolchain\arm-none-eabi\include\c++\10.2.1\bits\random.h ****       subtract_with_carry_engine() : subtract_with_carry_engine(default_seed)
 707:c:\program files\daisytoolchain\arm-none-eabi\include\c++\10.2.1\bits\random.h ****       { }
 708:c:\program files\daisytoolchain\arm-none-eabi\include\c++\10.2.1\bits\random.h **** 
 709:c:\program files\daisytoolchain\arm-none-eabi\include\c++\10.2.1\bits\random.h ****       /**
 710:c:\program files\daisytoolchain\arm-none-eabi\include\c++\10.2.1\bits\random.h ****        * @brief Constructs an explicitly seeded %subtract_with_carry_engine
 711:c:\program files\daisytoolchain\arm-none-eabi\include\c++\10.2.1\bits\random.h ****        *        random number generator.
 712:c:\program files\daisytoolchain\arm-none-eabi\include\c++\10.2.1\bits\random.h ****        */
 713:c:\program files\daisytoolchain\arm-none-eabi\include\c++\10.2.1\bits\random.h ****       explicit
 714:c:\program files\daisytoolchain\arm-none-eabi\include\c++\10.2.1\bits\random.h ****       subtract_with_carry_engine(result_type __sd)
 715:c:\program files\daisytoolchain\arm-none-eabi\include\c++\10.2.1\bits\random.h ****       { seed(__sd); }
 716:c:\program files\daisytoolchain\arm-none-eabi\include\c++\10.2.1\bits\random.h **** 
 717:c:\program files\daisytoolchain\arm-none-eabi\include\c++\10.2.1\bits\random.h ****       /**
 718:c:\program files\daisytoolchain\arm-none-eabi\include\c++\10.2.1\bits\random.h ****        * @brief Constructs a %subtract_with_carry_engine random number engine
 719:c:\program files\daisytoolchain\arm-none-eabi\include\c++\10.2.1\bits\random.h ****        *        seeded from the seed sequence @p __q.
 720:c:\program files\daisytoolchain\arm-none-eabi\include\c++\10.2.1\bits\random.h ****        *
 721:c:\program files\daisytoolchain\arm-none-eabi\include\c++\10.2.1\bits\random.h ****        * @param __q the seed sequence.
 722:c:\program files\daisytoolchain\arm-none-eabi\include\c++\10.2.1\bits\random.h ****        */
 723:c:\program files\daisytoolchain\arm-none-eabi\include\c++\10.2.1\bits\random.h ****       template<typename _Sseq, typename = _If_seed_seq<_Sseq>>
 724:c:\program files\daisytoolchain\arm-none-eabi\include\c++\10.2.1\bits\random.h ****         explicit
 725:c:\program files\daisytoolchain\arm-none-eabi\include\c++\10.2.1\bits\random.h ****         subtract_with_carry_engine(_Sseq& __q)
 726:c:\program files\daisytoolchain\arm-none-eabi\include\c++\10.2.1\bits\random.h ****         { seed(__q); }
 727:c:\program files\daisytoolchain\arm-none-eabi\include\c++\10.2.1\bits\random.h **** 
 728:c:\program files\daisytoolchain\arm-none-eabi\include\c++\10.2.1\bits\random.h ****       /**
 729:c:\program files\daisytoolchain\arm-none-eabi\include\c++\10.2.1\bits\random.h ****        * @brief Seeds the initial state @f$x_0@f$ of the random number
 730:c:\program files\daisytoolchain\arm-none-eabi\include\c++\10.2.1\bits\random.h ****        *        generator.
 731:c:\program files\daisytoolchain\arm-none-eabi\include\c++\10.2.1\bits\random.h ****        *
 732:c:\program files\daisytoolchain\arm-none-eabi\include\c++\10.2.1\bits\random.h ****        * N1688[4.19] modifies this as follows.  If @p __value == 0,
 733:c:\program files\daisytoolchain\arm-none-eabi\include\c++\10.2.1\bits\random.h ****        * sets value to 19780503.  In any case, with a linear
 734:c:\program files\daisytoolchain\arm-none-eabi\include\c++\10.2.1\bits\random.h ****        * congruential generator lcg(i) having parameters @f$ m_{lcg} =
 735:c:\program files\daisytoolchain\arm-none-eabi\include\c++\10.2.1\bits\random.h ****        * 2147483563, a_{lcg} = 40014, c_{lcg} = 0, and lcg(0) = value
 736:c:\program files\daisytoolchain\arm-none-eabi\include\c++\10.2.1\bits\random.h ****        * @f$, sets @f$ x_{-r} \dots x_{-1} @f$ to @f$ lcg(1) \bmod m
 737:c:\program files\daisytoolchain\arm-none-eabi\include\c++\10.2.1\bits\random.h ****        * \dots lcg(r) \bmod m @f$ respectively.  If @f$ x_{-1} = 0 @f$
 738:c:\program files\daisytoolchain\arm-none-eabi\include\c++\10.2.1\bits\random.h ****        * set carry to 1, otherwise sets carry to 0.
 739:c:\program files\daisytoolchain\arm-none-eabi\include\c++\10.2.1\bits\random.h ****        */
 740:c:\program files\daisytoolchain\arm-none-eabi\include\c++\10.2.1\bits\random.h ****       void
 741:c:\program files\daisytoolchain\arm-none-eabi\include\c++\10.2.1\bits\random.h ****       seed(result_type __sd = default_seed);
 742:c:\program files\daisytoolchain\arm-none-eabi\include\c++\10.2.1\bits\random.h **** 
 743:c:\program files\daisytoolchain\arm-none-eabi\include\c++\10.2.1\bits\random.h ****       /**
 744:c:\program files\daisytoolchain\arm-none-eabi\include\c++\10.2.1\bits\random.h ****        * @brief Seeds the initial state @f$x_0@f$ of the
 745:c:\program files\daisytoolchain\arm-none-eabi\include\c++\10.2.1\bits\random.h ****        * % subtract_with_carry_engine random number generator.
 746:c:\program files\daisytoolchain\arm-none-eabi\include\c++\10.2.1\bits\random.h ****        */
 747:c:\program files\daisytoolchain\arm-none-eabi\include\c++\10.2.1\bits\random.h ****       template<typename _Sseq>
 748:c:\program files\daisytoolchain\arm-none-eabi\include\c++\10.2.1\bits\random.h **** 	_If_seed_seq<_Sseq>
 749:c:\program files\daisytoolchain\arm-none-eabi\include\c++\10.2.1\bits\random.h ****         seed(_Sseq& __q);
 750:c:\program files\daisytoolchain\arm-none-eabi\include\c++\10.2.1\bits\random.h **** 
 751:c:\program files\daisytoolchain\arm-none-eabi\include\c++\10.2.1\bits\random.h ****       /**
 752:c:\program files\daisytoolchain\arm-none-eabi\include\c++\10.2.1\bits\random.h ****        * @brief Gets the inclusive minimum value of the range of random
ARM GAS  C:\Users\wuru8\AppData\Local\Temp\cczVuj1W.s 			page 30


 753:c:\program files\daisytoolchain\arm-none-eabi\include\c++\10.2.1\bits\random.h ****        * integers returned by this generator.
 754:c:\program files\daisytoolchain\arm-none-eabi\include\c++\10.2.1\bits\random.h ****        */
 755:c:\program files\daisytoolchain\arm-none-eabi\include\c++\10.2.1\bits\random.h ****       static constexpr result_type
 756:c:\program files\daisytoolchain\arm-none-eabi\include\c++\10.2.1\bits\random.h ****       min()
 757:c:\program files\daisytoolchain\arm-none-eabi\include\c++\10.2.1\bits\random.h ****       { return 0; }
 758:c:\program files\daisytoolchain\arm-none-eabi\include\c++\10.2.1\bits\random.h **** 
 759:c:\program files\daisytoolchain\arm-none-eabi\include\c++\10.2.1\bits\random.h ****       /**
 760:c:\program files\daisytoolchain\arm-none-eabi\include\c++\10.2.1\bits\random.h ****        * @brief Gets the inclusive maximum value of the range of random
 761:c:\program files\daisytoolchain\arm-none-eabi\include\c++\10.2.1\bits\random.h ****        * integers returned by this generator.
 762:c:\program files\daisytoolchain\arm-none-eabi\include\c++\10.2.1\bits\random.h ****        */
 763:c:\program files\daisytoolchain\arm-none-eabi\include\c++\10.2.1\bits\random.h ****       static constexpr result_type
 764:c:\program files\daisytoolchain\arm-none-eabi\include\c++\10.2.1\bits\random.h ****       max()
 765:c:\program files\daisytoolchain\arm-none-eabi\include\c++\10.2.1\bits\random.h ****       { return __detail::_Shift<_UIntType, __w>::__value - 1; }
 766:c:\program files\daisytoolchain\arm-none-eabi\include\c++\10.2.1\bits\random.h **** 
 767:c:\program files\daisytoolchain\arm-none-eabi\include\c++\10.2.1\bits\random.h ****       /**
 768:c:\program files\daisytoolchain\arm-none-eabi\include\c++\10.2.1\bits\random.h ****        * @brief Discard a sequence of random numbers.
 769:c:\program files\daisytoolchain\arm-none-eabi\include\c++\10.2.1\bits\random.h ****        */
 770:c:\program files\daisytoolchain\arm-none-eabi\include\c++\10.2.1\bits\random.h ****       void
 771:c:\program files\daisytoolchain\arm-none-eabi\include\c++\10.2.1\bits\random.h ****       discard(unsigned long long __z)
 772:c:\program files\daisytoolchain\arm-none-eabi\include\c++\10.2.1\bits\random.h ****       {
 773:c:\program files\daisytoolchain\arm-none-eabi\include\c++\10.2.1\bits\random.h **** 	for (; __z != 0ULL; --__z)
 774:c:\program files\daisytoolchain\arm-none-eabi\include\c++\10.2.1\bits\random.h **** 	  (*this)();
 775:c:\program files\daisytoolchain\arm-none-eabi\include\c++\10.2.1\bits\random.h ****       }
 776:c:\program files\daisytoolchain\arm-none-eabi\include\c++\10.2.1\bits\random.h **** 
 777:c:\program files\daisytoolchain\arm-none-eabi\include\c++\10.2.1\bits\random.h ****       /**
 778:c:\program files\daisytoolchain\arm-none-eabi\include\c++\10.2.1\bits\random.h ****        * @brief Gets the next random number in the sequence.
 779:c:\program files\daisytoolchain\arm-none-eabi\include\c++\10.2.1\bits\random.h ****        */
 780:c:\program files\daisytoolchain\arm-none-eabi\include\c++\10.2.1\bits\random.h ****       result_type
 781:c:\program files\daisytoolchain\arm-none-eabi\include\c++\10.2.1\bits\random.h ****       operator()();
 782:c:\program files\daisytoolchain\arm-none-eabi\include\c++\10.2.1\bits\random.h **** 
 783:c:\program files\daisytoolchain\arm-none-eabi\include\c++\10.2.1\bits\random.h ****       /**
 784:c:\program files\daisytoolchain\arm-none-eabi\include\c++\10.2.1\bits\random.h ****        * @brief Compares two % subtract_with_carry_engine random number
 785:c:\program files\daisytoolchain\arm-none-eabi\include\c++\10.2.1\bits\random.h ****        *        generator objects of the same type for equality.
 786:c:\program files\daisytoolchain\arm-none-eabi\include\c++\10.2.1\bits\random.h ****        *
 787:c:\program files\daisytoolchain\arm-none-eabi\include\c++\10.2.1\bits\random.h ****        * @param __lhs A % subtract_with_carry_engine random number generator
 788:c:\program files\daisytoolchain\arm-none-eabi\include\c++\10.2.1\bits\random.h ****        *              object.
 789:c:\program files\daisytoolchain\arm-none-eabi\include\c++\10.2.1\bits\random.h ****        * @param __rhs Another % subtract_with_carry_engine random number
 790:c:\program files\daisytoolchain\arm-none-eabi\include\c++\10.2.1\bits\random.h ****        *              generator object.
 791:c:\program files\daisytoolchain\arm-none-eabi\include\c++\10.2.1\bits\random.h ****        *
 792:c:\program files\daisytoolchain\arm-none-eabi\include\c++\10.2.1\bits\random.h ****        * @returns true if the infinite sequences of generated values
 793:c:\program files\daisytoolchain\arm-none-eabi\include\c++\10.2.1\bits\random.h ****        *          would be equal, false otherwise.
 794:c:\program files\daisytoolchain\arm-none-eabi\include\c++\10.2.1\bits\random.h ****       */
 795:c:\program files\daisytoolchain\arm-none-eabi\include\c++\10.2.1\bits\random.h ****       friend bool
 796:c:\program files\daisytoolchain\arm-none-eabi\include\c++\10.2.1\bits\random.h ****       operator==(const subtract_with_carry_engine& __lhs,
 797:c:\program files\daisytoolchain\arm-none-eabi\include\c++\10.2.1\bits\random.h **** 		 const subtract_with_carry_engine& __rhs)
 798:c:\program files\daisytoolchain\arm-none-eabi\include\c++\10.2.1\bits\random.h ****       { return (std::equal(__lhs._M_x, __lhs._M_x + long_lag, __rhs._M_x)
 799:c:\program files\daisytoolchain\arm-none-eabi\include\c++\10.2.1\bits\random.h **** 		&& __lhs._M_carry == __rhs._M_carry
 800:c:\program files\daisytoolchain\arm-none-eabi\include\c++\10.2.1\bits\random.h **** 		&& __lhs._M_p == __rhs._M_p); }
 801:c:\program files\daisytoolchain\arm-none-eabi\include\c++\10.2.1\bits\random.h **** 
 802:c:\program files\daisytoolchain\arm-none-eabi\include\c++\10.2.1\bits\random.h ****       /**
 803:c:\program files\daisytoolchain\arm-none-eabi\include\c++\10.2.1\bits\random.h ****        * @brief Inserts the current state of a % subtract_with_carry_engine
 804:c:\program files\daisytoolchain\arm-none-eabi\include\c++\10.2.1\bits\random.h ****        *        random number generator engine @p __x into the output stream
 805:c:\program files\daisytoolchain\arm-none-eabi\include\c++\10.2.1\bits\random.h ****        *        @p __os.
 806:c:\program files\daisytoolchain\arm-none-eabi\include\c++\10.2.1\bits\random.h ****        *
 807:c:\program files\daisytoolchain\arm-none-eabi\include\c++\10.2.1\bits\random.h ****        * @param __os An output stream.
 808:c:\program files\daisytoolchain\arm-none-eabi\include\c++\10.2.1\bits\random.h ****        * @param __x  A % subtract_with_carry_engine random number generator
 809:c:\program files\daisytoolchain\arm-none-eabi\include\c++\10.2.1\bits\random.h ****        *             engine.
ARM GAS  C:\Users\wuru8\AppData\Local\Temp\cczVuj1W.s 			page 31


 810:c:\program files\daisytoolchain\arm-none-eabi\include\c++\10.2.1\bits\random.h ****        *
 811:c:\program files\daisytoolchain\arm-none-eabi\include\c++\10.2.1\bits\random.h ****        * @returns The output stream with the state of @p __x inserted or in
 812:c:\program files\daisytoolchain\arm-none-eabi\include\c++\10.2.1\bits\random.h ****        * an error state.
 813:c:\program files\daisytoolchain\arm-none-eabi\include\c++\10.2.1\bits\random.h ****        */
 814:c:\program files\daisytoolchain\arm-none-eabi\include\c++\10.2.1\bits\random.h ****       template<typename _UIntType1, size_t __w1, size_t __s1, size_t __r1,
 815:c:\program files\daisytoolchain\arm-none-eabi\include\c++\10.2.1\bits\random.h **** 	       typename _CharT, typename _Traits>
 816:c:\program files\daisytoolchain\arm-none-eabi\include\c++\10.2.1\bits\random.h **** 	friend std::basic_ostream<_CharT, _Traits>&
 817:c:\program files\daisytoolchain\arm-none-eabi\include\c++\10.2.1\bits\random.h **** 	operator<<(std::basic_ostream<_CharT, _Traits>& __os,
 818:c:\program files\daisytoolchain\arm-none-eabi\include\c++\10.2.1\bits\random.h **** 		   const std::subtract_with_carry_engine<_UIntType1, __w1,
 819:c:\program files\daisytoolchain\arm-none-eabi\include\c++\10.2.1\bits\random.h **** 		   __s1, __r1>& __x);
 820:c:\program files\daisytoolchain\arm-none-eabi\include\c++\10.2.1\bits\random.h **** 
 821:c:\program files\daisytoolchain\arm-none-eabi\include\c++\10.2.1\bits\random.h ****       /**
 822:c:\program files\daisytoolchain\arm-none-eabi\include\c++\10.2.1\bits\random.h ****        * @brief Extracts the current state of a % subtract_with_carry_engine
 823:c:\program files\daisytoolchain\arm-none-eabi\include\c++\10.2.1\bits\random.h ****        *        random number generator engine @p __x from the input stream
 824:c:\program files\daisytoolchain\arm-none-eabi\include\c++\10.2.1\bits\random.h ****        *        @p __is.
 825:c:\program files\daisytoolchain\arm-none-eabi\include\c++\10.2.1\bits\random.h ****        *
 826:c:\program files\daisytoolchain\arm-none-eabi\include\c++\10.2.1\bits\random.h ****        * @param __is An input stream.
 827:c:\program files\daisytoolchain\arm-none-eabi\include\c++\10.2.1\bits\random.h ****        * @param __x  A % subtract_with_carry_engine random number generator
 828:c:\program files\daisytoolchain\arm-none-eabi\include\c++\10.2.1\bits\random.h ****        *             engine.
 829:c:\program files\daisytoolchain\arm-none-eabi\include\c++\10.2.1\bits\random.h ****        *
 830:c:\program files\daisytoolchain\arm-none-eabi\include\c++\10.2.1\bits\random.h ****        * @returns The input stream with the state of @p __x extracted or in
 831:c:\program files\daisytoolchain\arm-none-eabi\include\c++\10.2.1\bits\random.h ****        * an error state.
 832:c:\program files\daisytoolchain\arm-none-eabi\include\c++\10.2.1\bits\random.h ****        */
 833:c:\program files\daisytoolchain\arm-none-eabi\include\c++\10.2.1\bits\random.h ****       template<typename _UIntType1, size_t __w1, size_t __s1, size_t __r1,
 834:c:\program files\daisytoolchain\arm-none-eabi\include\c++\10.2.1\bits\random.h **** 	       typename _CharT, typename _Traits>
 835:c:\program files\daisytoolchain\arm-none-eabi\include\c++\10.2.1\bits\random.h **** 	friend std::basic_istream<_CharT, _Traits>&
 836:c:\program files\daisytoolchain\arm-none-eabi\include\c++\10.2.1\bits\random.h **** 	operator>>(std::basic_istream<_CharT, _Traits>& __is,
 837:c:\program files\daisytoolchain\arm-none-eabi\include\c++\10.2.1\bits\random.h **** 		   std::subtract_with_carry_engine<_UIntType1, __w1,
 838:c:\program files\daisytoolchain\arm-none-eabi\include\c++\10.2.1\bits\random.h **** 		   __s1, __r1>& __x);
 839:c:\program files\daisytoolchain\arm-none-eabi\include\c++\10.2.1\bits\random.h **** 
 840:c:\program files\daisytoolchain\arm-none-eabi\include\c++\10.2.1\bits\random.h ****     private:
 841:c:\program files\daisytoolchain\arm-none-eabi\include\c++\10.2.1\bits\random.h ****       /// The state of the generator.  This is a ring buffer.
 842:c:\program files\daisytoolchain\arm-none-eabi\include\c++\10.2.1\bits\random.h ****       _UIntType  _M_x[long_lag];
 843:c:\program files\daisytoolchain\arm-none-eabi\include\c++\10.2.1\bits\random.h ****       _UIntType  _M_carry;		///< The carry
 844:c:\program files\daisytoolchain\arm-none-eabi\include\c++\10.2.1\bits\random.h ****       size_t     _M_p;			///< Current index of x(i - r).
 845:c:\program files\daisytoolchain\arm-none-eabi\include\c++\10.2.1\bits\random.h ****     };
 846:c:\program files\daisytoolchain\arm-none-eabi\include\c++\10.2.1\bits\random.h **** 
 847:c:\program files\daisytoolchain\arm-none-eabi\include\c++\10.2.1\bits\random.h ****   /**
 848:c:\program files\daisytoolchain\arm-none-eabi\include\c++\10.2.1\bits\random.h ****    * @brief Compares two % subtract_with_carry_engine random number
 849:c:\program files\daisytoolchain\arm-none-eabi\include\c++\10.2.1\bits\random.h ****    *        generator objects of the same type for inequality.
 850:c:\program files\daisytoolchain\arm-none-eabi\include\c++\10.2.1\bits\random.h ****    *
 851:c:\program files\daisytoolchain\arm-none-eabi\include\c++\10.2.1\bits\random.h ****    * @param __lhs A % subtract_with_carry_engine random number generator
 852:c:\program files\daisytoolchain\arm-none-eabi\include\c++\10.2.1\bits\random.h ****    *              object.
 853:c:\program files\daisytoolchain\arm-none-eabi\include\c++\10.2.1\bits\random.h ****    * @param __rhs Another % subtract_with_carry_engine random number
 854:c:\program files\daisytoolchain\arm-none-eabi\include\c++\10.2.1\bits\random.h ****    *              generator object.
 855:c:\program files\daisytoolchain\arm-none-eabi\include\c++\10.2.1\bits\random.h ****    *
 856:c:\program files\daisytoolchain\arm-none-eabi\include\c++\10.2.1\bits\random.h ****    * @returns true if the infinite sequences of generated values
 857:c:\program files\daisytoolchain\arm-none-eabi\include\c++\10.2.1\bits\random.h ****    *          would be different, false otherwise.
 858:c:\program files\daisytoolchain\arm-none-eabi\include\c++\10.2.1\bits\random.h ****    */
 859:c:\program files\daisytoolchain\arm-none-eabi\include\c++\10.2.1\bits\random.h ****   template<typename _UIntType, size_t __w, size_t __s, size_t __r>
 860:c:\program files\daisytoolchain\arm-none-eabi\include\c++\10.2.1\bits\random.h ****     inline bool
 861:c:\program files\daisytoolchain\arm-none-eabi\include\c++\10.2.1\bits\random.h ****     operator!=(const std::subtract_with_carry_engine<_UIntType, __w,
 862:c:\program files\daisytoolchain\arm-none-eabi\include\c++\10.2.1\bits\random.h **** 	       __s, __r>& __lhs,
 863:c:\program files\daisytoolchain\arm-none-eabi\include\c++\10.2.1\bits\random.h **** 	       const std::subtract_with_carry_engine<_UIntType, __w,
 864:c:\program files\daisytoolchain\arm-none-eabi\include\c++\10.2.1\bits\random.h **** 	       __s, __r>& __rhs)
 865:c:\program files\daisytoolchain\arm-none-eabi\include\c++\10.2.1\bits\random.h ****     { return !(__lhs == __rhs); }
 866:c:\program files\daisytoolchain\arm-none-eabi\include\c++\10.2.1\bits\random.h **** 
ARM GAS  C:\Users\wuru8\AppData\Local\Temp\cczVuj1W.s 			page 32


 867:c:\program files\daisytoolchain\arm-none-eabi\include\c++\10.2.1\bits\random.h **** 
 868:c:\program files\daisytoolchain\arm-none-eabi\include\c++\10.2.1\bits\random.h ****   /**
 869:c:\program files\daisytoolchain\arm-none-eabi\include\c++\10.2.1\bits\random.h ****    * Produces random numbers from some base engine by discarding blocks of
 870:c:\program files\daisytoolchain\arm-none-eabi\include\c++\10.2.1\bits\random.h ****    * data.
 871:c:\program files\daisytoolchain\arm-none-eabi\include\c++\10.2.1\bits\random.h ****    *
 872:c:\program files\daisytoolchain\arm-none-eabi\include\c++\10.2.1\bits\random.h ****    * 0 <= @p __r <= @p __p
 873:c:\program files\daisytoolchain\arm-none-eabi\include\c++\10.2.1\bits\random.h ****    */
 874:c:\program files\daisytoolchain\arm-none-eabi\include\c++\10.2.1\bits\random.h ****   template<typename _RandomNumberEngine, size_t __p, size_t __r>
 875:c:\program files\daisytoolchain\arm-none-eabi\include\c++\10.2.1\bits\random.h ****     class discard_block_engine
 876:c:\program files\daisytoolchain\arm-none-eabi\include\c++\10.2.1\bits\random.h ****     {
 877:c:\program files\daisytoolchain\arm-none-eabi\include\c++\10.2.1\bits\random.h ****       static_assert(1 <= __r && __r <= __p,
 878:c:\program files\daisytoolchain\arm-none-eabi\include\c++\10.2.1\bits\random.h **** 		    "template argument substituting __r out of bounds");
 879:c:\program files\daisytoolchain\arm-none-eabi\include\c++\10.2.1\bits\random.h **** 
 880:c:\program files\daisytoolchain\arm-none-eabi\include\c++\10.2.1\bits\random.h ****     public:
 881:c:\program files\daisytoolchain\arm-none-eabi\include\c++\10.2.1\bits\random.h ****       /** The type of the generated random value. */
 882:c:\program files\daisytoolchain\arm-none-eabi\include\c++\10.2.1\bits\random.h ****       typedef typename _RandomNumberEngine::result_type result_type;
 883:c:\program files\daisytoolchain\arm-none-eabi\include\c++\10.2.1\bits\random.h **** 
 884:c:\program files\daisytoolchain\arm-none-eabi\include\c++\10.2.1\bits\random.h ****       template<typename _Sseq>
 885:c:\program files\daisytoolchain\arm-none-eabi\include\c++\10.2.1\bits\random.h **** 	using _If_seed_seq = typename enable_if<__detail::__is_seed_seq<
 886:c:\program files\daisytoolchain\arm-none-eabi\include\c++\10.2.1\bits\random.h **** 	  _Sseq, discard_block_engine, result_type>::value>::type;
 887:c:\program files\daisytoolchain\arm-none-eabi\include\c++\10.2.1\bits\random.h **** 
 888:c:\program files\daisytoolchain\arm-none-eabi\include\c++\10.2.1\bits\random.h ****       // parameter values
 889:c:\program files\daisytoolchain\arm-none-eabi\include\c++\10.2.1\bits\random.h ****       static constexpr size_t block_size = __p;
 890:c:\program files\daisytoolchain\arm-none-eabi\include\c++\10.2.1\bits\random.h ****       static constexpr size_t used_block = __r;
 891:c:\program files\daisytoolchain\arm-none-eabi\include\c++\10.2.1\bits\random.h **** 
 892:c:\program files\daisytoolchain\arm-none-eabi\include\c++\10.2.1\bits\random.h ****       /**
 893:c:\program files\daisytoolchain\arm-none-eabi\include\c++\10.2.1\bits\random.h ****        * @brief Constructs a default %discard_block_engine engine.
 894:c:\program files\daisytoolchain\arm-none-eabi\include\c++\10.2.1\bits\random.h ****        *
 895:c:\program files\daisytoolchain\arm-none-eabi\include\c++\10.2.1\bits\random.h ****        * The underlying engine is default constructed as well.
 896:c:\program files\daisytoolchain\arm-none-eabi\include\c++\10.2.1\bits\random.h ****        */
 897:c:\program files\daisytoolchain\arm-none-eabi\include\c++\10.2.1\bits\random.h ****       discard_block_engine()
 898:c:\program files\daisytoolchain\arm-none-eabi\include\c++\10.2.1\bits\random.h ****       : _M_b(), _M_n(0) { }
 899:c:\program files\daisytoolchain\arm-none-eabi\include\c++\10.2.1\bits\random.h **** 
 900:c:\program files\daisytoolchain\arm-none-eabi\include\c++\10.2.1\bits\random.h ****       /**
 901:c:\program files\daisytoolchain\arm-none-eabi\include\c++\10.2.1\bits\random.h ****        * @brief Copy constructs a %discard_block_engine engine.
 902:c:\program files\daisytoolchain\arm-none-eabi\include\c++\10.2.1\bits\random.h ****        *
 903:c:\program files\daisytoolchain\arm-none-eabi\include\c++\10.2.1\bits\random.h ****        * Copies an existing base class random number generator.
 904:c:\program files\daisytoolchain\arm-none-eabi\include\c++\10.2.1\bits\random.h ****        * @param __rng An existing (base class) engine object.
 905:c:\program files\daisytoolchain\arm-none-eabi\include\c++\10.2.1\bits\random.h ****        */
 906:c:\program files\daisytoolchain\arm-none-eabi\include\c++\10.2.1\bits\random.h ****       explicit
 907:c:\program files\daisytoolchain\arm-none-eabi\include\c++\10.2.1\bits\random.h ****       discard_block_engine(const _RandomNumberEngine& __rng)
 908:c:\program files\daisytoolchain\arm-none-eabi\include\c++\10.2.1\bits\random.h ****       : _M_b(__rng), _M_n(0) { }
 909:c:\program files\daisytoolchain\arm-none-eabi\include\c++\10.2.1\bits\random.h **** 
 910:c:\program files\daisytoolchain\arm-none-eabi\include\c++\10.2.1\bits\random.h ****       /**
 911:c:\program files\daisytoolchain\arm-none-eabi\include\c++\10.2.1\bits\random.h ****        * @brief Move constructs a %discard_block_engine engine.
 912:c:\program files\daisytoolchain\arm-none-eabi\include\c++\10.2.1\bits\random.h ****        *
 913:c:\program files\daisytoolchain\arm-none-eabi\include\c++\10.2.1\bits\random.h ****        * Copies an existing base class random number generator.
 914:c:\program files\daisytoolchain\arm-none-eabi\include\c++\10.2.1\bits\random.h ****        * @param __rng An existing (base class) engine object.
 915:c:\program files\daisytoolchain\arm-none-eabi\include\c++\10.2.1\bits\random.h ****        */
 916:c:\program files\daisytoolchain\arm-none-eabi\include\c++\10.2.1\bits\random.h ****       explicit
 917:c:\program files\daisytoolchain\arm-none-eabi\include\c++\10.2.1\bits\random.h ****       discard_block_engine(_RandomNumberEngine&& __rng)
 918:c:\program files\daisytoolchain\arm-none-eabi\include\c++\10.2.1\bits\random.h ****       : _M_b(std::move(__rng)), _M_n(0) { }
 919:c:\program files\daisytoolchain\arm-none-eabi\include\c++\10.2.1\bits\random.h **** 
 920:c:\program files\daisytoolchain\arm-none-eabi\include\c++\10.2.1\bits\random.h ****       /**
 921:c:\program files\daisytoolchain\arm-none-eabi\include\c++\10.2.1\bits\random.h ****        * @brief Seed constructs a %discard_block_engine engine.
 922:c:\program files\daisytoolchain\arm-none-eabi\include\c++\10.2.1\bits\random.h ****        *
 923:c:\program files\daisytoolchain\arm-none-eabi\include\c++\10.2.1\bits\random.h ****        * Constructs the underlying generator engine seeded with @p __s.
ARM GAS  C:\Users\wuru8\AppData\Local\Temp\cczVuj1W.s 			page 33


 924:c:\program files\daisytoolchain\arm-none-eabi\include\c++\10.2.1\bits\random.h ****        * @param __s A seed value for the base class engine.
 925:c:\program files\daisytoolchain\arm-none-eabi\include\c++\10.2.1\bits\random.h ****        */
 926:c:\program files\daisytoolchain\arm-none-eabi\include\c++\10.2.1\bits\random.h ****       explicit
 927:c:\program files\daisytoolchain\arm-none-eabi\include\c++\10.2.1\bits\random.h ****       discard_block_engine(result_type __s)
 928:c:\program files\daisytoolchain\arm-none-eabi\include\c++\10.2.1\bits\random.h ****       : _M_b(__s), _M_n(0) { }
 929:c:\program files\daisytoolchain\arm-none-eabi\include\c++\10.2.1\bits\random.h **** 
 930:c:\program files\daisytoolchain\arm-none-eabi\include\c++\10.2.1\bits\random.h ****       /**
 931:c:\program files\daisytoolchain\arm-none-eabi\include\c++\10.2.1\bits\random.h ****        * @brief Generator construct a %discard_block_engine engine.
 932:c:\program files\daisytoolchain\arm-none-eabi\include\c++\10.2.1\bits\random.h ****        *
 933:c:\program files\daisytoolchain\arm-none-eabi\include\c++\10.2.1\bits\random.h ****        * @param __q A seed sequence.
 934:c:\program files\daisytoolchain\arm-none-eabi\include\c++\10.2.1\bits\random.h ****        */
 935:c:\program files\daisytoolchain\arm-none-eabi\include\c++\10.2.1\bits\random.h ****       template<typename _Sseq, typename = _If_seed_seq<_Sseq>>
 936:c:\program files\daisytoolchain\arm-none-eabi\include\c++\10.2.1\bits\random.h ****         explicit
 937:c:\program files\daisytoolchain\arm-none-eabi\include\c++\10.2.1\bits\random.h ****         discard_block_engine(_Sseq& __q)
 938:c:\program files\daisytoolchain\arm-none-eabi\include\c++\10.2.1\bits\random.h **** 	: _M_b(__q), _M_n(0)
 939:c:\program files\daisytoolchain\arm-none-eabi\include\c++\10.2.1\bits\random.h ****         { }
 940:c:\program files\daisytoolchain\arm-none-eabi\include\c++\10.2.1\bits\random.h **** 
 941:c:\program files\daisytoolchain\arm-none-eabi\include\c++\10.2.1\bits\random.h ****       /**
 942:c:\program files\daisytoolchain\arm-none-eabi\include\c++\10.2.1\bits\random.h ****        * @brief Reseeds the %discard_block_engine object with the default
 943:c:\program files\daisytoolchain\arm-none-eabi\include\c++\10.2.1\bits\random.h ****        *        seed for the underlying base class generator engine.
 944:c:\program files\daisytoolchain\arm-none-eabi\include\c++\10.2.1\bits\random.h ****        */
 945:c:\program files\daisytoolchain\arm-none-eabi\include\c++\10.2.1\bits\random.h ****       void
 946:c:\program files\daisytoolchain\arm-none-eabi\include\c++\10.2.1\bits\random.h ****       seed()
 947:c:\program files\daisytoolchain\arm-none-eabi\include\c++\10.2.1\bits\random.h ****       {
 948:c:\program files\daisytoolchain\arm-none-eabi\include\c++\10.2.1\bits\random.h **** 	_M_b.seed();
 949:c:\program files\daisytoolchain\arm-none-eabi\include\c++\10.2.1\bits\random.h **** 	_M_n = 0;
 950:c:\program files\daisytoolchain\arm-none-eabi\include\c++\10.2.1\bits\random.h ****       }
 951:c:\program files\daisytoolchain\arm-none-eabi\include\c++\10.2.1\bits\random.h **** 
 952:c:\program files\daisytoolchain\arm-none-eabi\include\c++\10.2.1\bits\random.h ****       /**
 953:c:\program files\daisytoolchain\arm-none-eabi\include\c++\10.2.1\bits\random.h ****        * @brief Reseeds the %discard_block_engine object with the default
 954:c:\program files\daisytoolchain\arm-none-eabi\include\c++\10.2.1\bits\random.h ****        *        seed for the underlying base class generator engine.
 955:c:\program files\daisytoolchain\arm-none-eabi\include\c++\10.2.1\bits\random.h ****        */
 956:c:\program files\daisytoolchain\arm-none-eabi\include\c++\10.2.1\bits\random.h ****       void
 957:c:\program files\daisytoolchain\arm-none-eabi\include\c++\10.2.1\bits\random.h ****       seed(result_type __s)
 958:c:\program files\daisytoolchain\arm-none-eabi\include\c++\10.2.1\bits\random.h ****       {
 959:c:\program files\daisytoolchain\arm-none-eabi\include\c++\10.2.1\bits\random.h **** 	_M_b.seed(__s);
 960:c:\program files\daisytoolchain\arm-none-eabi\include\c++\10.2.1\bits\random.h **** 	_M_n = 0;
 961:c:\program files\daisytoolchain\arm-none-eabi\include\c++\10.2.1\bits\random.h ****       }
 962:c:\program files\daisytoolchain\arm-none-eabi\include\c++\10.2.1\bits\random.h **** 
 963:c:\program files\daisytoolchain\arm-none-eabi\include\c++\10.2.1\bits\random.h ****       /**
 964:c:\program files\daisytoolchain\arm-none-eabi\include\c++\10.2.1\bits\random.h ****        * @brief Reseeds the %discard_block_engine object with the given seed
 965:c:\program files\daisytoolchain\arm-none-eabi\include\c++\10.2.1\bits\random.h ****        *        sequence.
 966:c:\program files\daisytoolchain\arm-none-eabi\include\c++\10.2.1\bits\random.h ****        * @param __q A seed generator function.
 967:c:\program files\daisytoolchain\arm-none-eabi\include\c++\10.2.1\bits\random.h ****        */
 968:c:\program files\daisytoolchain\arm-none-eabi\include\c++\10.2.1\bits\random.h ****       template<typename _Sseq>
 969:c:\program files\daisytoolchain\arm-none-eabi\include\c++\10.2.1\bits\random.h ****         _If_seed_seq<_Sseq>
 970:c:\program files\daisytoolchain\arm-none-eabi\include\c++\10.2.1\bits\random.h ****         seed(_Sseq& __q)
 971:c:\program files\daisytoolchain\arm-none-eabi\include\c++\10.2.1\bits\random.h ****         {
 972:c:\program files\daisytoolchain\arm-none-eabi\include\c++\10.2.1\bits\random.h **** 	  _M_b.seed(__q);
 973:c:\program files\daisytoolchain\arm-none-eabi\include\c++\10.2.1\bits\random.h **** 	  _M_n = 0;
 974:c:\program files\daisytoolchain\arm-none-eabi\include\c++\10.2.1\bits\random.h **** 	}
 975:c:\program files\daisytoolchain\arm-none-eabi\include\c++\10.2.1\bits\random.h **** 
 976:c:\program files\daisytoolchain\arm-none-eabi\include\c++\10.2.1\bits\random.h ****       /**
 977:c:\program files\daisytoolchain\arm-none-eabi\include\c++\10.2.1\bits\random.h ****        * @brief Gets a const reference to the underlying generator engine
 978:c:\program files\daisytoolchain\arm-none-eabi\include\c++\10.2.1\bits\random.h ****        *        object.
 979:c:\program files\daisytoolchain\arm-none-eabi\include\c++\10.2.1\bits\random.h ****        */
 980:c:\program files\daisytoolchain\arm-none-eabi\include\c++\10.2.1\bits\random.h ****       const _RandomNumberEngine&
ARM GAS  C:\Users\wuru8\AppData\Local\Temp\cczVuj1W.s 			page 34


 981:c:\program files\daisytoolchain\arm-none-eabi\include\c++\10.2.1\bits\random.h ****       base() const noexcept
 982:c:\program files\daisytoolchain\arm-none-eabi\include\c++\10.2.1\bits\random.h ****       { return _M_b; }
 983:c:\program files\daisytoolchain\arm-none-eabi\include\c++\10.2.1\bits\random.h **** 
 984:c:\program files\daisytoolchain\arm-none-eabi\include\c++\10.2.1\bits\random.h ****       /**
 985:c:\program files\daisytoolchain\arm-none-eabi\include\c++\10.2.1\bits\random.h ****        * @brief Gets the minimum value in the generated random number range.
 986:c:\program files\daisytoolchain\arm-none-eabi\include\c++\10.2.1\bits\random.h ****        */
 987:c:\program files\daisytoolchain\arm-none-eabi\include\c++\10.2.1\bits\random.h ****       static constexpr result_type
 988:c:\program files\daisytoolchain\arm-none-eabi\include\c++\10.2.1\bits\random.h ****       min()
 989:c:\program files\daisytoolchain\arm-none-eabi\include\c++\10.2.1\bits\random.h ****       { return _RandomNumberEngine::min(); }
 990:c:\program files\daisytoolchain\arm-none-eabi\include\c++\10.2.1\bits\random.h **** 
 991:c:\program files\daisytoolchain\arm-none-eabi\include\c++\10.2.1\bits\random.h ****       /**
 992:c:\program files\daisytoolchain\arm-none-eabi\include\c++\10.2.1\bits\random.h ****        * @brief Gets the maximum value in the generated random number range.
 993:c:\program files\daisytoolchain\arm-none-eabi\include\c++\10.2.1\bits\random.h ****        */
 994:c:\program files\daisytoolchain\arm-none-eabi\include\c++\10.2.1\bits\random.h ****       static constexpr result_type
 995:c:\program files\daisytoolchain\arm-none-eabi\include\c++\10.2.1\bits\random.h ****       max()
 996:c:\program files\daisytoolchain\arm-none-eabi\include\c++\10.2.1\bits\random.h ****       { return _RandomNumberEngine::max(); }
 997:c:\program files\daisytoolchain\arm-none-eabi\include\c++\10.2.1\bits\random.h **** 
 998:c:\program files\daisytoolchain\arm-none-eabi\include\c++\10.2.1\bits\random.h ****       /**
 999:c:\program files\daisytoolchain\arm-none-eabi\include\c++\10.2.1\bits\random.h ****        * @brief Discard a sequence of random numbers.
1000:c:\program files\daisytoolchain\arm-none-eabi\include\c++\10.2.1\bits\random.h ****        */
1001:c:\program files\daisytoolchain\arm-none-eabi\include\c++\10.2.1\bits\random.h ****       void
1002:c:\program files\daisytoolchain\arm-none-eabi\include\c++\10.2.1\bits\random.h ****       discard(unsigned long long __z)
1003:c:\program files\daisytoolchain\arm-none-eabi\include\c++\10.2.1\bits\random.h ****       {
1004:c:\program files\daisytoolchain\arm-none-eabi\include\c++\10.2.1\bits\random.h **** 	for (; __z != 0ULL; --__z)
1005:c:\program files\daisytoolchain\arm-none-eabi\include\c++\10.2.1\bits\random.h **** 	  (*this)();
1006:c:\program files\daisytoolchain\arm-none-eabi\include\c++\10.2.1\bits\random.h ****       }
1007:c:\program files\daisytoolchain\arm-none-eabi\include\c++\10.2.1\bits\random.h **** 
1008:c:\program files\daisytoolchain\arm-none-eabi\include\c++\10.2.1\bits\random.h ****       /**
1009:c:\program files\daisytoolchain\arm-none-eabi\include\c++\10.2.1\bits\random.h ****        * @brief Gets the next value in the generated random number sequence.
1010:c:\program files\daisytoolchain\arm-none-eabi\include\c++\10.2.1\bits\random.h ****        */
1011:c:\program files\daisytoolchain\arm-none-eabi\include\c++\10.2.1\bits\random.h ****       result_type
1012:c:\program files\daisytoolchain\arm-none-eabi\include\c++\10.2.1\bits\random.h ****       operator()();
1013:c:\program files\daisytoolchain\arm-none-eabi\include\c++\10.2.1\bits\random.h **** 
1014:c:\program files\daisytoolchain\arm-none-eabi\include\c++\10.2.1\bits\random.h ****       /**
1015:c:\program files\daisytoolchain\arm-none-eabi\include\c++\10.2.1\bits\random.h ****        * @brief Compares two %discard_block_engine random number generator
1016:c:\program files\daisytoolchain\arm-none-eabi\include\c++\10.2.1\bits\random.h ****        *        objects of the same type for equality.
1017:c:\program files\daisytoolchain\arm-none-eabi\include\c++\10.2.1\bits\random.h ****        *
1018:c:\program files\daisytoolchain\arm-none-eabi\include\c++\10.2.1\bits\random.h ****        * @param __lhs A %discard_block_engine random number generator object.
1019:c:\program files\daisytoolchain\arm-none-eabi\include\c++\10.2.1\bits\random.h ****        * @param __rhs Another %discard_block_engine random number generator
1020:c:\program files\daisytoolchain\arm-none-eabi\include\c++\10.2.1\bits\random.h ****        *              object.
1021:c:\program files\daisytoolchain\arm-none-eabi\include\c++\10.2.1\bits\random.h ****        *
1022:c:\program files\daisytoolchain\arm-none-eabi\include\c++\10.2.1\bits\random.h ****        * @returns true if the infinite sequences of generated values
1023:c:\program files\daisytoolchain\arm-none-eabi\include\c++\10.2.1\bits\random.h ****        *          would be equal, false otherwise.
1024:c:\program files\daisytoolchain\arm-none-eabi\include\c++\10.2.1\bits\random.h ****        */
1025:c:\program files\daisytoolchain\arm-none-eabi\include\c++\10.2.1\bits\random.h ****       friend bool
1026:c:\program files\daisytoolchain\arm-none-eabi\include\c++\10.2.1\bits\random.h ****       operator==(const discard_block_engine& __lhs,
1027:c:\program files\daisytoolchain\arm-none-eabi\include\c++\10.2.1\bits\random.h **** 		 const discard_block_engine& __rhs)
1028:c:\program files\daisytoolchain\arm-none-eabi\include\c++\10.2.1\bits\random.h ****       { return __lhs._M_b == __rhs._M_b && __lhs._M_n == __rhs._M_n; }
1029:c:\program files\daisytoolchain\arm-none-eabi\include\c++\10.2.1\bits\random.h **** 
1030:c:\program files\daisytoolchain\arm-none-eabi\include\c++\10.2.1\bits\random.h ****       /**
1031:c:\program files\daisytoolchain\arm-none-eabi\include\c++\10.2.1\bits\random.h ****        * @brief Inserts the current state of a %discard_block_engine random
1032:c:\program files\daisytoolchain\arm-none-eabi\include\c++\10.2.1\bits\random.h ****        *        number generator engine @p __x into the output stream
1033:c:\program files\daisytoolchain\arm-none-eabi\include\c++\10.2.1\bits\random.h ****        *        @p __os.
1034:c:\program files\daisytoolchain\arm-none-eabi\include\c++\10.2.1\bits\random.h ****        *
1035:c:\program files\daisytoolchain\arm-none-eabi\include\c++\10.2.1\bits\random.h ****        * @param __os An output stream.
1036:c:\program files\daisytoolchain\arm-none-eabi\include\c++\10.2.1\bits\random.h ****        * @param __x  A %discard_block_engine random number generator engine.
1037:c:\program files\daisytoolchain\arm-none-eabi\include\c++\10.2.1\bits\random.h ****        *
ARM GAS  C:\Users\wuru8\AppData\Local\Temp\cczVuj1W.s 			page 35


1038:c:\program files\daisytoolchain\arm-none-eabi\include\c++\10.2.1\bits\random.h ****        * @returns The output stream with the state of @p __x inserted or in
1039:c:\program files\daisytoolchain\arm-none-eabi\include\c++\10.2.1\bits\random.h ****        * an error state.
1040:c:\program files\daisytoolchain\arm-none-eabi\include\c++\10.2.1\bits\random.h ****        */
1041:c:\program files\daisytoolchain\arm-none-eabi\include\c++\10.2.1\bits\random.h ****       template<typename _RandomNumberEngine1, size_t __p1, size_t __r1,
1042:c:\program files\daisytoolchain\arm-none-eabi\include\c++\10.2.1\bits\random.h **** 	       typename _CharT, typename _Traits>
1043:c:\program files\daisytoolchain\arm-none-eabi\include\c++\10.2.1\bits\random.h **** 	friend std::basic_ostream<_CharT, _Traits>&
1044:c:\program files\daisytoolchain\arm-none-eabi\include\c++\10.2.1\bits\random.h **** 	operator<<(std::basic_ostream<_CharT, _Traits>& __os,
1045:c:\program files\daisytoolchain\arm-none-eabi\include\c++\10.2.1\bits\random.h **** 		   const std::discard_block_engine<_RandomNumberEngine1,
1046:c:\program files\daisytoolchain\arm-none-eabi\include\c++\10.2.1\bits\random.h **** 		   __p1, __r1>& __x);
1047:c:\program files\daisytoolchain\arm-none-eabi\include\c++\10.2.1\bits\random.h **** 
1048:c:\program files\daisytoolchain\arm-none-eabi\include\c++\10.2.1\bits\random.h ****       /**
1049:c:\program files\daisytoolchain\arm-none-eabi\include\c++\10.2.1\bits\random.h ****        * @brief Extracts the current state of a % subtract_with_carry_engine
1050:c:\program files\daisytoolchain\arm-none-eabi\include\c++\10.2.1\bits\random.h ****        *        random number generator engine @p __x from the input stream
1051:c:\program files\daisytoolchain\arm-none-eabi\include\c++\10.2.1\bits\random.h ****        *        @p __is.
1052:c:\program files\daisytoolchain\arm-none-eabi\include\c++\10.2.1\bits\random.h ****        *
1053:c:\program files\daisytoolchain\arm-none-eabi\include\c++\10.2.1\bits\random.h ****        * @param __is An input stream.
1054:c:\program files\daisytoolchain\arm-none-eabi\include\c++\10.2.1\bits\random.h ****        * @param __x  A %discard_block_engine random number generator engine.
1055:c:\program files\daisytoolchain\arm-none-eabi\include\c++\10.2.1\bits\random.h ****        *
1056:c:\program files\daisytoolchain\arm-none-eabi\include\c++\10.2.1\bits\random.h ****        * @returns The input stream with the state of @p __x extracted or in
1057:c:\program files\daisytoolchain\arm-none-eabi\include\c++\10.2.1\bits\random.h ****        * an error state.
1058:c:\program files\daisytoolchain\arm-none-eabi\include\c++\10.2.1\bits\random.h ****        */
1059:c:\program files\daisytoolchain\arm-none-eabi\include\c++\10.2.1\bits\random.h ****       template<typename _RandomNumberEngine1, size_t __p1, size_t __r1,
1060:c:\program files\daisytoolchain\arm-none-eabi\include\c++\10.2.1\bits\random.h **** 	       typename _CharT, typename _Traits>
1061:c:\program files\daisytoolchain\arm-none-eabi\include\c++\10.2.1\bits\random.h **** 	friend std::basic_istream<_CharT, _Traits>&
1062:c:\program files\daisytoolchain\arm-none-eabi\include\c++\10.2.1\bits\random.h **** 	operator>>(std::basic_istream<_CharT, _Traits>& __is,
1063:c:\program files\daisytoolchain\arm-none-eabi\include\c++\10.2.1\bits\random.h **** 		   std::discard_block_engine<_RandomNumberEngine1,
1064:c:\program files\daisytoolchain\arm-none-eabi\include\c++\10.2.1\bits\random.h **** 		   __p1, __r1>& __x);
1065:c:\program files\daisytoolchain\arm-none-eabi\include\c++\10.2.1\bits\random.h **** 
1066:c:\program files\daisytoolchain\arm-none-eabi\include\c++\10.2.1\bits\random.h ****     private:
1067:c:\program files\daisytoolchain\arm-none-eabi\include\c++\10.2.1\bits\random.h ****       _RandomNumberEngine _M_b;
1068:c:\program files\daisytoolchain\arm-none-eabi\include\c++\10.2.1\bits\random.h ****       size_t _M_n;
1069:c:\program files\daisytoolchain\arm-none-eabi\include\c++\10.2.1\bits\random.h ****     };
1070:c:\program files\daisytoolchain\arm-none-eabi\include\c++\10.2.1\bits\random.h **** 
1071:c:\program files\daisytoolchain\arm-none-eabi\include\c++\10.2.1\bits\random.h ****   /**
1072:c:\program files\daisytoolchain\arm-none-eabi\include\c++\10.2.1\bits\random.h ****    * @brief Compares two %discard_block_engine random number generator
1073:c:\program files\daisytoolchain\arm-none-eabi\include\c++\10.2.1\bits\random.h ****    *        objects of the same type for inequality.
1074:c:\program files\daisytoolchain\arm-none-eabi\include\c++\10.2.1\bits\random.h ****    *
1075:c:\program files\daisytoolchain\arm-none-eabi\include\c++\10.2.1\bits\random.h ****    * @param __lhs A %discard_block_engine random number generator object.
1076:c:\program files\daisytoolchain\arm-none-eabi\include\c++\10.2.1\bits\random.h ****    * @param __rhs Another %discard_block_engine random number generator
1077:c:\program files\daisytoolchain\arm-none-eabi\include\c++\10.2.1\bits\random.h ****    *              object.
1078:c:\program files\daisytoolchain\arm-none-eabi\include\c++\10.2.1\bits\random.h ****    *
1079:c:\program files\daisytoolchain\arm-none-eabi\include\c++\10.2.1\bits\random.h ****    * @returns true if the infinite sequences of generated values
1080:c:\program files\daisytoolchain\arm-none-eabi\include\c++\10.2.1\bits\random.h ****    *          would be different, false otherwise.
1081:c:\program files\daisytoolchain\arm-none-eabi\include\c++\10.2.1\bits\random.h ****    */
1082:c:\program files\daisytoolchain\arm-none-eabi\include\c++\10.2.1\bits\random.h ****   template<typename _RandomNumberEngine, size_t __p, size_t __r>
1083:c:\program files\daisytoolchain\arm-none-eabi\include\c++\10.2.1\bits\random.h ****     inline bool
1084:c:\program files\daisytoolchain\arm-none-eabi\include\c++\10.2.1\bits\random.h ****     operator!=(const std::discard_block_engine<_RandomNumberEngine, __p,
1085:c:\program files\daisytoolchain\arm-none-eabi\include\c++\10.2.1\bits\random.h **** 	       __r>& __lhs,
1086:c:\program files\daisytoolchain\arm-none-eabi\include\c++\10.2.1\bits\random.h **** 	       const std::discard_block_engine<_RandomNumberEngine, __p,
1087:c:\program files\daisytoolchain\arm-none-eabi\include\c++\10.2.1\bits\random.h **** 	       __r>& __rhs)
1088:c:\program files\daisytoolchain\arm-none-eabi\include\c++\10.2.1\bits\random.h ****     { return !(__lhs == __rhs); }
1089:c:\program files\daisytoolchain\arm-none-eabi\include\c++\10.2.1\bits\random.h **** 
1090:c:\program files\daisytoolchain\arm-none-eabi\include\c++\10.2.1\bits\random.h **** 
1091:c:\program files\daisytoolchain\arm-none-eabi\include\c++\10.2.1\bits\random.h ****   /**
1092:c:\program files\daisytoolchain\arm-none-eabi\include\c++\10.2.1\bits\random.h ****    * Produces random numbers by combining random numbers from some base
1093:c:\program files\daisytoolchain\arm-none-eabi\include\c++\10.2.1\bits\random.h ****    * engine to produce random numbers with a specifies number of bits @p __w.
1094:c:\program files\daisytoolchain\arm-none-eabi\include\c++\10.2.1\bits\random.h ****    */
ARM GAS  C:\Users\wuru8\AppData\Local\Temp\cczVuj1W.s 			page 36


1095:c:\program files\daisytoolchain\arm-none-eabi\include\c++\10.2.1\bits\random.h ****   template<typename _RandomNumberEngine, size_t __w, typename _UIntType>
1096:c:\program files\daisytoolchain\arm-none-eabi\include\c++\10.2.1\bits\random.h ****     class independent_bits_engine
1097:c:\program files\daisytoolchain\arm-none-eabi\include\c++\10.2.1\bits\random.h ****     {
1098:c:\program files\daisytoolchain\arm-none-eabi\include\c++\10.2.1\bits\random.h ****       static_assert(std::is_unsigned<_UIntType>::value,
1099:c:\program files\daisytoolchain\arm-none-eabi\include\c++\10.2.1\bits\random.h **** 		    "result_type must be an unsigned integral type");
1100:c:\program files\daisytoolchain\arm-none-eabi\include\c++\10.2.1\bits\random.h ****       static_assert(0u < __w && __w <= std::numeric_limits<_UIntType>::digits,
1101:c:\program files\daisytoolchain\arm-none-eabi\include\c++\10.2.1\bits\random.h **** 		    "template argument substituting __w out of bounds");
1102:c:\program files\daisytoolchain\arm-none-eabi\include\c++\10.2.1\bits\random.h **** 
1103:c:\program files\daisytoolchain\arm-none-eabi\include\c++\10.2.1\bits\random.h ****       template<typename _Sseq>
1104:c:\program files\daisytoolchain\arm-none-eabi\include\c++\10.2.1\bits\random.h **** 	using _If_seed_seq = typename enable_if<__detail::__is_seed_seq<
1105:c:\program files\daisytoolchain\arm-none-eabi\include\c++\10.2.1\bits\random.h **** 	  _Sseq, independent_bits_engine, _UIntType>::value>::type;
1106:c:\program files\daisytoolchain\arm-none-eabi\include\c++\10.2.1\bits\random.h **** 
1107:c:\program files\daisytoolchain\arm-none-eabi\include\c++\10.2.1\bits\random.h ****     public:
1108:c:\program files\daisytoolchain\arm-none-eabi\include\c++\10.2.1\bits\random.h ****       /** The type of the generated random value. */
1109:c:\program files\daisytoolchain\arm-none-eabi\include\c++\10.2.1\bits\random.h ****       typedef _UIntType result_type;
1110:c:\program files\daisytoolchain\arm-none-eabi\include\c++\10.2.1\bits\random.h **** 
1111:c:\program files\daisytoolchain\arm-none-eabi\include\c++\10.2.1\bits\random.h ****       /**
1112:c:\program files\daisytoolchain\arm-none-eabi\include\c++\10.2.1\bits\random.h ****        * @brief Constructs a default %independent_bits_engine engine.
1113:c:\program files\daisytoolchain\arm-none-eabi\include\c++\10.2.1\bits\random.h ****        *
1114:c:\program files\daisytoolchain\arm-none-eabi\include\c++\10.2.1\bits\random.h ****        * The underlying engine is default constructed as well.
1115:c:\program files\daisytoolchain\arm-none-eabi\include\c++\10.2.1\bits\random.h ****        */
1116:c:\program files\daisytoolchain\arm-none-eabi\include\c++\10.2.1\bits\random.h ****       independent_bits_engine()
1117:c:\program files\daisytoolchain\arm-none-eabi\include\c++\10.2.1\bits\random.h ****       : _M_b() { }
1118:c:\program files\daisytoolchain\arm-none-eabi\include\c++\10.2.1\bits\random.h **** 
1119:c:\program files\daisytoolchain\arm-none-eabi\include\c++\10.2.1\bits\random.h ****       /**
1120:c:\program files\daisytoolchain\arm-none-eabi\include\c++\10.2.1\bits\random.h ****        * @brief Copy constructs a %independent_bits_engine engine.
1121:c:\program files\daisytoolchain\arm-none-eabi\include\c++\10.2.1\bits\random.h ****        *
1122:c:\program files\daisytoolchain\arm-none-eabi\include\c++\10.2.1\bits\random.h ****        * Copies an existing base class random number generator.
1123:c:\program files\daisytoolchain\arm-none-eabi\include\c++\10.2.1\bits\random.h ****        * @param __rng An existing (base class) engine object.
1124:c:\program files\daisytoolchain\arm-none-eabi\include\c++\10.2.1\bits\random.h ****        */
1125:c:\program files\daisytoolchain\arm-none-eabi\include\c++\10.2.1\bits\random.h ****       explicit
1126:c:\program files\daisytoolchain\arm-none-eabi\include\c++\10.2.1\bits\random.h ****       independent_bits_engine(const _RandomNumberEngine& __rng)
1127:c:\program files\daisytoolchain\arm-none-eabi\include\c++\10.2.1\bits\random.h ****       : _M_b(__rng) { }
1128:c:\program files\daisytoolchain\arm-none-eabi\include\c++\10.2.1\bits\random.h **** 
1129:c:\program files\daisytoolchain\arm-none-eabi\include\c++\10.2.1\bits\random.h ****       /**
1130:c:\program files\daisytoolchain\arm-none-eabi\include\c++\10.2.1\bits\random.h ****        * @brief Move constructs a %independent_bits_engine engine.
1131:c:\program files\daisytoolchain\arm-none-eabi\include\c++\10.2.1\bits\random.h ****        *
1132:c:\program files\daisytoolchain\arm-none-eabi\include\c++\10.2.1\bits\random.h ****        * Copies an existing base class random number generator.
1133:c:\program files\daisytoolchain\arm-none-eabi\include\c++\10.2.1\bits\random.h ****        * @param __rng An existing (base class) engine object.
1134:c:\program files\daisytoolchain\arm-none-eabi\include\c++\10.2.1\bits\random.h ****        */
1135:c:\program files\daisytoolchain\arm-none-eabi\include\c++\10.2.1\bits\random.h ****       explicit
1136:c:\program files\daisytoolchain\arm-none-eabi\include\c++\10.2.1\bits\random.h ****       independent_bits_engine(_RandomNumberEngine&& __rng)
1137:c:\program files\daisytoolchain\arm-none-eabi\include\c++\10.2.1\bits\random.h ****       : _M_b(std::move(__rng)) { }
1138:c:\program files\daisytoolchain\arm-none-eabi\include\c++\10.2.1\bits\random.h **** 
1139:c:\program files\daisytoolchain\arm-none-eabi\include\c++\10.2.1\bits\random.h ****       /**
1140:c:\program files\daisytoolchain\arm-none-eabi\include\c++\10.2.1\bits\random.h ****        * @brief Seed constructs a %independent_bits_engine engine.
1141:c:\program files\daisytoolchain\arm-none-eabi\include\c++\10.2.1\bits\random.h ****        *
1142:c:\program files\daisytoolchain\arm-none-eabi\include\c++\10.2.1\bits\random.h ****        * Constructs the underlying generator engine seeded with @p __s.
1143:c:\program files\daisytoolchain\arm-none-eabi\include\c++\10.2.1\bits\random.h ****        * @param __s A seed value for the base class engine.
1144:c:\program files\daisytoolchain\arm-none-eabi\include\c++\10.2.1\bits\random.h ****        */
1145:c:\program files\daisytoolchain\arm-none-eabi\include\c++\10.2.1\bits\random.h ****       explicit
1146:c:\program files\daisytoolchain\arm-none-eabi\include\c++\10.2.1\bits\random.h ****       independent_bits_engine(result_type __s)
1147:c:\program files\daisytoolchain\arm-none-eabi\include\c++\10.2.1\bits\random.h ****       : _M_b(__s) { }
1148:c:\program files\daisytoolchain\arm-none-eabi\include\c++\10.2.1\bits\random.h **** 
1149:c:\program files\daisytoolchain\arm-none-eabi\include\c++\10.2.1\bits\random.h ****       /**
1150:c:\program files\daisytoolchain\arm-none-eabi\include\c++\10.2.1\bits\random.h ****        * @brief Generator construct a %independent_bits_engine engine.
1151:c:\program files\daisytoolchain\arm-none-eabi\include\c++\10.2.1\bits\random.h ****        *
ARM GAS  C:\Users\wuru8\AppData\Local\Temp\cczVuj1W.s 			page 37


1152:c:\program files\daisytoolchain\arm-none-eabi\include\c++\10.2.1\bits\random.h ****        * @param __q A seed sequence.
1153:c:\program files\daisytoolchain\arm-none-eabi\include\c++\10.2.1\bits\random.h ****        */
1154:c:\program files\daisytoolchain\arm-none-eabi\include\c++\10.2.1\bits\random.h ****       template<typename _Sseq, typename = _If_seed_seq<_Sseq>>
1155:c:\program files\daisytoolchain\arm-none-eabi\include\c++\10.2.1\bits\random.h ****         explicit
1156:c:\program files\daisytoolchain\arm-none-eabi\include\c++\10.2.1\bits\random.h ****         independent_bits_engine(_Sseq& __q)
1157:c:\program files\daisytoolchain\arm-none-eabi\include\c++\10.2.1\bits\random.h ****         : _M_b(__q)
1158:c:\program files\daisytoolchain\arm-none-eabi\include\c++\10.2.1\bits\random.h ****         { }
1159:c:\program files\daisytoolchain\arm-none-eabi\include\c++\10.2.1\bits\random.h **** 
1160:c:\program files\daisytoolchain\arm-none-eabi\include\c++\10.2.1\bits\random.h ****       /**
1161:c:\program files\daisytoolchain\arm-none-eabi\include\c++\10.2.1\bits\random.h ****        * @brief Reseeds the %independent_bits_engine object with the default
1162:c:\program files\daisytoolchain\arm-none-eabi\include\c++\10.2.1\bits\random.h ****        *        seed for the underlying base class generator engine.
1163:c:\program files\daisytoolchain\arm-none-eabi\include\c++\10.2.1\bits\random.h ****        */
1164:c:\program files\daisytoolchain\arm-none-eabi\include\c++\10.2.1\bits\random.h ****       void
1165:c:\program files\daisytoolchain\arm-none-eabi\include\c++\10.2.1\bits\random.h ****       seed()
1166:c:\program files\daisytoolchain\arm-none-eabi\include\c++\10.2.1\bits\random.h ****       { _M_b.seed(); }
1167:c:\program files\daisytoolchain\arm-none-eabi\include\c++\10.2.1\bits\random.h **** 
1168:c:\program files\daisytoolchain\arm-none-eabi\include\c++\10.2.1\bits\random.h ****       /**
1169:c:\program files\daisytoolchain\arm-none-eabi\include\c++\10.2.1\bits\random.h ****        * @brief Reseeds the %independent_bits_engine object with the default
1170:c:\program files\daisytoolchain\arm-none-eabi\include\c++\10.2.1\bits\random.h ****        *        seed for the underlying base class generator engine.
1171:c:\program files\daisytoolchain\arm-none-eabi\include\c++\10.2.1\bits\random.h ****        */
1172:c:\program files\daisytoolchain\arm-none-eabi\include\c++\10.2.1\bits\random.h ****       void
1173:c:\program files\daisytoolchain\arm-none-eabi\include\c++\10.2.1\bits\random.h ****       seed(result_type __s)
1174:c:\program files\daisytoolchain\arm-none-eabi\include\c++\10.2.1\bits\random.h ****       { _M_b.seed(__s); }
1175:c:\program files\daisytoolchain\arm-none-eabi\include\c++\10.2.1\bits\random.h **** 
1176:c:\program files\daisytoolchain\arm-none-eabi\include\c++\10.2.1\bits\random.h ****       /**
1177:c:\program files\daisytoolchain\arm-none-eabi\include\c++\10.2.1\bits\random.h ****        * @brief Reseeds the %independent_bits_engine object with the given
1178:c:\program files\daisytoolchain\arm-none-eabi\include\c++\10.2.1\bits\random.h ****        *        seed sequence.
1179:c:\program files\daisytoolchain\arm-none-eabi\include\c++\10.2.1\bits\random.h ****        * @param __q A seed generator function.
1180:c:\program files\daisytoolchain\arm-none-eabi\include\c++\10.2.1\bits\random.h ****        */
1181:c:\program files\daisytoolchain\arm-none-eabi\include\c++\10.2.1\bits\random.h ****       template<typename _Sseq>
1182:c:\program files\daisytoolchain\arm-none-eabi\include\c++\10.2.1\bits\random.h ****         _If_seed_seq<_Sseq>
1183:c:\program files\daisytoolchain\arm-none-eabi\include\c++\10.2.1\bits\random.h ****         seed(_Sseq& __q)
1184:c:\program files\daisytoolchain\arm-none-eabi\include\c++\10.2.1\bits\random.h ****         { _M_b.seed(__q); }
1185:c:\program files\daisytoolchain\arm-none-eabi\include\c++\10.2.1\bits\random.h **** 
1186:c:\program files\daisytoolchain\arm-none-eabi\include\c++\10.2.1\bits\random.h ****       /**
1187:c:\program files\daisytoolchain\arm-none-eabi\include\c++\10.2.1\bits\random.h ****        * @brief Gets a const reference to the underlying generator engine
1188:c:\program files\daisytoolchain\arm-none-eabi\include\c++\10.2.1\bits\random.h ****        *        object.
1189:c:\program files\daisytoolchain\arm-none-eabi\include\c++\10.2.1\bits\random.h ****        */
1190:c:\program files\daisytoolchain\arm-none-eabi\include\c++\10.2.1\bits\random.h ****       const _RandomNumberEngine&
1191:c:\program files\daisytoolchain\arm-none-eabi\include\c++\10.2.1\bits\random.h ****       base() const noexcept
1192:c:\program files\daisytoolchain\arm-none-eabi\include\c++\10.2.1\bits\random.h ****       { return _M_b; }
1193:c:\program files\daisytoolchain\arm-none-eabi\include\c++\10.2.1\bits\random.h **** 
1194:c:\program files\daisytoolchain\arm-none-eabi\include\c++\10.2.1\bits\random.h ****       /**
1195:c:\program files\daisytoolchain\arm-none-eabi\include\c++\10.2.1\bits\random.h ****        * @brief Gets the minimum value in the generated random number range.
1196:c:\program files\daisytoolchain\arm-none-eabi\include\c++\10.2.1\bits\random.h ****        */
1197:c:\program files\daisytoolchain\arm-none-eabi\include\c++\10.2.1\bits\random.h ****       static constexpr result_type
1198:c:\program files\daisytoolchain\arm-none-eabi\include\c++\10.2.1\bits\random.h ****       min()
1199:c:\program files\daisytoolchain\arm-none-eabi\include\c++\10.2.1\bits\random.h ****       { return 0U; }
1200:c:\program files\daisytoolchain\arm-none-eabi\include\c++\10.2.1\bits\random.h **** 
1201:c:\program files\daisytoolchain\arm-none-eabi\include\c++\10.2.1\bits\random.h ****       /**
1202:c:\program files\daisytoolchain\arm-none-eabi\include\c++\10.2.1\bits\random.h ****        * @brief Gets the maximum value in the generated random number range.
1203:c:\program files\daisytoolchain\arm-none-eabi\include\c++\10.2.1\bits\random.h ****        */
1204:c:\program files\daisytoolchain\arm-none-eabi\include\c++\10.2.1\bits\random.h ****       static constexpr result_type
1205:c:\program files\daisytoolchain\arm-none-eabi\include\c++\10.2.1\bits\random.h ****       max()
1206:c:\program files\daisytoolchain\arm-none-eabi\include\c++\10.2.1\bits\random.h ****       { return __detail::_Shift<_UIntType, __w>::__value - 1; }
1207:c:\program files\daisytoolchain\arm-none-eabi\include\c++\10.2.1\bits\random.h **** 
1208:c:\program files\daisytoolchain\arm-none-eabi\include\c++\10.2.1\bits\random.h ****       /**
ARM GAS  C:\Users\wuru8\AppData\Local\Temp\cczVuj1W.s 			page 38


1209:c:\program files\daisytoolchain\arm-none-eabi\include\c++\10.2.1\bits\random.h ****        * @brief Discard a sequence of random numbers.
1210:c:\program files\daisytoolchain\arm-none-eabi\include\c++\10.2.1\bits\random.h ****        */
1211:c:\program files\daisytoolchain\arm-none-eabi\include\c++\10.2.1\bits\random.h ****       void
1212:c:\program files\daisytoolchain\arm-none-eabi\include\c++\10.2.1\bits\random.h ****       discard(unsigned long long __z)
1213:c:\program files\daisytoolchain\arm-none-eabi\include\c++\10.2.1\bits\random.h ****       {
1214:c:\program files\daisytoolchain\arm-none-eabi\include\c++\10.2.1\bits\random.h **** 	for (; __z != 0ULL; --__z)
1215:c:\program files\daisytoolchain\arm-none-eabi\include\c++\10.2.1\bits\random.h **** 	  (*this)();
1216:c:\program files\daisytoolchain\arm-none-eabi\include\c++\10.2.1\bits\random.h ****       }
1217:c:\program files\daisytoolchain\arm-none-eabi\include\c++\10.2.1\bits\random.h **** 
1218:c:\program files\daisytoolchain\arm-none-eabi\include\c++\10.2.1\bits\random.h ****       /**
1219:c:\program files\daisytoolchain\arm-none-eabi\include\c++\10.2.1\bits\random.h ****        * @brief Gets the next value in the generated random number sequence.
1220:c:\program files\daisytoolchain\arm-none-eabi\include\c++\10.2.1\bits\random.h ****        */
1221:c:\program files\daisytoolchain\arm-none-eabi\include\c++\10.2.1\bits\random.h ****       result_type
1222:c:\program files\daisytoolchain\arm-none-eabi\include\c++\10.2.1\bits\random.h ****       operator()();
1223:c:\program files\daisytoolchain\arm-none-eabi\include\c++\10.2.1\bits\random.h **** 
1224:c:\program files\daisytoolchain\arm-none-eabi\include\c++\10.2.1\bits\random.h ****       /**
1225:c:\program files\daisytoolchain\arm-none-eabi\include\c++\10.2.1\bits\random.h ****        * @brief Compares two %independent_bits_engine random number generator
1226:c:\program files\daisytoolchain\arm-none-eabi\include\c++\10.2.1\bits\random.h ****        * objects of the same type for equality.
1227:c:\program files\daisytoolchain\arm-none-eabi\include\c++\10.2.1\bits\random.h ****        *
1228:c:\program files\daisytoolchain\arm-none-eabi\include\c++\10.2.1\bits\random.h ****        * @param __lhs A %independent_bits_engine random number generator
1229:c:\program files\daisytoolchain\arm-none-eabi\include\c++\10.2.1\bits\random.h ****        *              object.
1230:c:\program files\daisytoolchain\arm-none-eabi\include\c++\10.2.1\bits\random.h ****        * @param __rhs Another %independent_bits_engine random number generator
1231:c:\program files\daisytoolchain\arm-none-eabi\include\c++\10.2.1\bits\random.h ****        *              object.
1232:c:\program files\daisytoolchain\arm-none-eabi\include\c++\10.2.1\bits\random.h ****        *
1233:c:\program files\daisytoolchain\arm-none-eabi\include\c++\10.2.1\bits\random.h ****        * @returns true if the infinite sequences of generated values
1234:c:\program files\daisytoolchain\arm-none-eabi\include\c++\10.2.1\bits\random.h ****        *          would be equal, false otherwise.
1235:c:\program files\daisytoolchain\arm-none-eabi\include\c++\10.2.1\bits\random.h ****        */
1236:c:\program files\daisytoolchain\arm-none-eabi\include\c++\10.2.1\bits\random.h ****       friend bool
1237:c:\program files\daisytoolchain\arm-none-eabi\include\c++\10.2.1\bits\random.h ****       operator==(const independent_bits_engine& __lhs,
1238:c:\program files\daisytoolchain\arm-none-eabi\include\c++\10.2.1\bits\random.h **** 		 const independent_bits_engine& __rhs)
1239:c:\program files\daisytoolchain\arm-none-eabi\include\c++\10.2.1\bits\random.h ****       { return __lhs._M_b == __rhs._M_b; }
1240:c:\program files\daisytoolchain\arm-none-eabi\include\c++\10.2.1\bits\random.h **** 
1241:c:\program files\daisytoolchain\arm-none-eabi\include\c++\10.2.1\bits\random.h ****       /**
1242:c:\program files\daisytoolchain\arm-none-eabi\include\c++\10.2.1\bits\random.h ****        * @brief Extracts the current state of a % subtract_with_carry_engine
1243:c:\program files\daisytoolchain\arm-none-eabi\include\c++\10.2.1\bits\random.h ****        *        random number generator engine @p __x from the input stream
1244:c:\program files\daisytoolchain\arm-none-eabi\include\c++\10.2.1\bits\random.h ****        *        @p __is.
1245:c:\program files\daisytoolchain\arm-none-eabi\include\c++\10.2.1\bits\random.h ****        *
1246:c:\program files\daisytoolchain\arm-none-eabi\include\c++\10.2.1\bits\random.h ****        * @param __is An input stream.
1247:c:\program files\daisytoolchain\arm-none-eabi\include\c++\10.2.1\bits\random.h ****        * @param __x  A %independent_bits_engine random number generator
1248:c:\program files\daisytoolchain\arm-none-eabi\include\c++\10.2.1\bits\random.h ****        *             engine.
1249:c:\program files\daisytoolchain\arm-none-eabi\include\c++\10.2.1\bits\random.h ****        *
1250:c:\program files\daisytoolchain\arm-none-eabi\include\c++\10.2.1\bits\random.h ****        * @returns The input stream with the state of @p __x extracted or in
1251:c:\program files\daisytoolchain\arm-none-eabi\include\c++\10.2.1\bits\random.h ****        *          an error state.
1252:c:\program files\daisytoolchain\arm-none-eabi\include\c++\10.2.1\bits\random.h ****        */
1253:c:\program files\daisytoolchain\arm-none-eabi\include\c++\10.2.1\bits\random.h ****       template<typename _CharT, typename _Traits>
1254:c:\program files\daisytoolchain\arm-none-eabi\include\c++\10.2.1\bits\random.h **** 	friend std::basic_istream<_CharT, _Traits>&
1255:c:\program files\daisytoolchain\arm-none-eabi\include\c++\10.2.1\bits\random.h **** 	operator>>(std::basic_istream<_CharT, _Traits>& __is,
1256:c:\program files\daisytoolchain\arm-none-eabi\include\c++\10.2.1\bits\random.h **** 		   std::independent_bits_engine<_RandomNumberEngine,
1257:c:\program files\daisytoolchain\arm-none-eabi\include\c++\10.2.1\bits\random.h **** 		   __w, _UIntType>& __x)
1258:c:\program files\daisytoolchain\arm-none-eabi\include\c++\10.2.1\bits\random.h **** 	{
1259:c:\program files\daisytoolchain\arm-none-eabi\include\c++\10.2.1\bits\random.h **** 	  __is >> __x._M_b;
1260:c:\program files\daisytoolchain\arm-none-eabi\include\c++\10.2.1\bits\random.h **** 	  return __is;
1261:c:\program files\daisytoolchain\arm-none-eabi\include\c++\10.2.1\bits\random.h **** 	}
1262:c:\program files\daisytoolchain\arm-none-eabi\include\c++\10.2.1\bits\random.h **** 
1263:c:\program files\daisytoolchain\arm-none-eabi\include\c++\10.2.1\bits\random.h ****     private:
1264:c:\program files\daisytoolchain\arm-none-eabi\include\c++\10.2.1\bits\random.h ****       _RandomNumberEngine _M_b;
1265:c:\program files\daisytoolchain\arm-none-eabi\include\c++\10.2.1\bits\random.h ****     };
ARM GAS  C:\Users\wuru8\AppData\Local\Temp\cczVuj1W.s 			page 39


1266:c:\program files\daisytoolchain\arm-none-eabi\include\c++\10.2.1\bits\random.h **** 
1267:c:\program files\daisytoolchain\arm-none-eabi\include\c++\10.2.1\bits\random.h ****   /**
1268:c:\program files\daisytoolchain\arm-none-eabi\include\c++\10.2.1\bits\random.h ****    * @brief Compares two %independent_bits_engine random number generator
1269:c:\program files\daisytoolchain\arm-none-eabi\include\c++\10.2.1\bits\random.h ****    * objects of the same type for inequality.
1270:c:\program files\daisytoolchain\arm-none-eabi\include\c++\10.2.1\bits\random.h ****    *
1271:c:\program files\daisytoolchain\arm-none-eabi\include\c++\10.2.1\bits\random.h ****    * @param __lhs A %independent_bits_engine random number generator
1272:c:\program files\daisytoolchain\arm-none-eabi\include\c++\10.2.1\bits\random.h ****    *              object.
1273:c:\program files\daisytoolchain\arm-none-eabi\include\c++\10.2.1\bits\random.h ****    * @param __rhs Another %independent_bits_engine random number generator
1274:c:\program files\daisytoolchain\arm-none-eabi\include\c++\10.2.1\bits\random.h ****    *              object.
1275:c:\program files\daisytoolchain\arm-none-eabi\include\c++\10.2.1\bits\random.h ****    *
1276:c:\program files\daisytoolchain\arm-none-eabi\include\c++\10.2.1\bits\random.h ****    * @returns true if the infinite sequences of generated values
1277:c:\program files\daisytoolchain\arm-none-eabi\include\c++\10.2.1\bits\random.h ****    *          would be different, false otherwise.
1278:c:\program files\daisytoolchain\arm-none-eabi\include\c++\10.2.1\bits\random.h ****    */
1279:c:\program files\daisytoolchain\arm-none-eabi\include\c++\10.2.1\bits\random.h ****   template<typename _RandomNumberEngine, size_t __w, typename _UIntType>
1280:c:\program files\daisytoolchain\arm-none-eabi\include\c++\10.2.1\bits\random.h ****     inline bool
1281:c:\program files\daisytoolchain\arm-none-eabi\include\c++\10.2.1\bits\random.h ****     operator!=(const std::independent_bits_engine<_RandomNumberEngine, __w,
1282:c:\program files\daisytoolchain\arm-none-eabi\include\c++\10.2.1\bits\random.h **** 	       _UIntType>& __lhs,
1283:c:\program files\daisytoolchain\arm-none-eabi\include\c++\10.2.1\bits\random.h **** 	       const std::independent_bits_engine<_RandomNumberEngine, __w,
1284:c:\program files\daisytoolchain\arm-none-eabi\include\c++\10.2.1\bits\random.h **** 	       _UIntType>& __rhs)
1285:c:\program files\daisytoolchain\arm-none-eabi\include\c++\10.2.1\bits\random.h ****     { return !(__lhs == __rhs); }
1286:c:\program files\daisytoolchain\arm-none-eabi\include\c++\10.2.1\bits\random.h **** 
1287:c:\program files\daisytoolchain\arm-none-eabi\include\c++\10.2.1\bits\random.h ****   /**
1288:c:\program files\daisytoolchain\arm-none-eabi\include\c++\10.2.1\bits\random.h ****    * @brief Inserts the current state of a %independent_bits_engine random
1289:c:\program files\daisytoolchain\arm-none-eabi\include\c++\10.2.1\bits\random.h ****    *        number generator engine @p __x into the output stream @p __os.
1290:c:\program files\daisytoolchain\arm-none-eabi\include\c++\10.2.1\bits\random.h ****    *
1291:c:\program files\daisytoolchain\arm-none-eabi\include\c++\10.2.1\bits\random.h ****    * @param __os An output stream.
1292:c:\program files\daisytoolchain\arm-none-eabi\include\c++\10.2.1\bits\random.h ****    * @param __x  A %independent_bits_engine random number generator engine.
1293:c:\program files\daisytoolchain\arm-none-eabi\include\c++\10.2.1\bits\random.h ****    *
1294:c:\program files\daisytoolchain\arm-none-eabi\include\c++\10.2.1\bits\random.h ****    * @returns The output stream with the state of @p __x inserted or in
1295:c:\program files\daisytoolchain\arm-none-eabi\include\c++\10.2.1\bits\random.h ****    *          an error state.
1296:c:\program files\daisytoolchain\arm-none-eabi\include\c++\10.2.1\bits\random.h ****    */
1297:c:\program files\daisytoolchain\arm-none-eabi\include\c++\10.2.1\bits\random.h ****   template<typename _RandomNumberEngine, size_t __w, typename _UIntType,
1298:c:\program files\daisytoolchain\arm-none-eabi\include\c++\10.2.1\bits\random.h **** 	   typename _CharT, typename _Traits>
1299:c:\program files\daisytoolchain\arm-none-eabi\include\c++\10.2.1\bits\random.h ****     std::basic_ostream<_CharT, _Traits>&
1300:c:\program files\daisytoolchain\arm-none-eabi\include\c++\10.2.1\bits\random.h ****     operator<<(std::basic_ostream<_CharT, _Traits>& __os,
1301:c:\program files\daisytoolchain\arm-none-eabi\include\c++\10.2.1\bits\random.h **** 	       const std::independent_bits_engine<_RandomNumberEngine,
1302:c:\program files\daisytoolchain\arm-none-eabi\include\c++\10.2.1\bits\random.h **** 	       __w, _UIntType>& __x)
1303:c:\program files\daisytoolchain\arm-none-eabi\include\c++\10.2.1\bits\random.h ****     {
1304:c:\program files\daisytoolchain\arm-none-eabi\include\c++\10.2.1\bits\random.h ****       __os << __x.base();
1305:c:\program files\daisytoolchain\arm-none-eabi\include\c++\10.2.1\bits\random.h ****       return __os;
1306:c:\program files\daisytoolchain\arm-none-eabi\include\c++\10.2.1\bits\random.h ****     }
1307:c:\program files\daisytoolchain\arm-none-eabi\include\c++\10.2.1\bits\random.h **** 
1308:c:\program files\daisytoolchain\arm-none-eabi\include\c++\10.2.1\bits\random.h **** 
1309:c:\program files\daisytoolchain\arm-none-eabi\include\c++\10.2.1\bits\random.h ****   /**
1310:c:\program files\daisytoolchain\arm-none-eabi\include\c++\10.2.1\bits\random.h ****    * @brief Produces random numbers by combining random numbers from some
1311:c:\program files\daisytoolchain\arm-none-eabi\include\c++\10.2.1\bits\random.h ****    * base engine to produce random numbers with a specifies number of bits
1312:c:\program files\daisytoolchain\arm-none-eabi\include\c++\10.2.1\bits\random.h ****    * @p __k.
1313:c:\program files\daisytoolchain\arm-none-eabi\include\c++\10.2.1\bits\random.h ****    */
1314:c:\program files\daisytoolchain\arm-none-eabi\include\c++\10.2.1\bits\random.h ****   template<typename _RandomNumberEngine, size_t __k>
1315:c:\program files\daisytoolchain\arm-none-eabi\include\c++\10.2.1\bits\random.h ****     class shuffle_order_engine
1316:c:\program files\daisytoolchain\arm-none-eabi\include\c++\10.2.1\bits\random.h ****     {
1317:c:\program files\daisytoolchain\arm-none-eabi\include\c++\10.2.1\bits\random.h ****       static_assert(1u <= __k, "template argument substituting "
1318:c:\program files\daisytoolchain\arm-none-eabi\include\c++\10.2.1\bits\random.h **** 		    "__k out of bound");
1319:c:\program files\daisytoolchain\arm-none-eabi\include\c++\10.2.1\bits\random.h **** 
1320:c:\program files\daisytoolchain\arm-none-eabi\include\c++\10.2.1\bits\random.h ****     public:
1321:c:\program files\daisytoolchain\arm-none-eabi\include\c++\10.2.1\bits\random.h ****       /** The type of the generated random value. */
1322:c:\program files\daisytoolchain\arm-none-eabi\include\c++\10.2.1\bits\random.h ****       typedef typename _RandomNumberEngine::result_type result_type;
ARM GAS  C:\Users\wuru8\AppData\Local\Temp\cczVuj1W.s 			page 40


1323:c:\program files\daisytoolchain\arm-none-eabi\include\c++\10.2.1\bits\random.h **** 
1324:c:\program files\daisytoolchain\arm-none-eabi\include\c++\10.2.1\bits\random.h ****       template<typename _Sseq>
1325:c:\program files\daisytoolchain\arm-none-eabi\include\c++\10.2.1\bits\random.h **** 	using _If_seed_seq = typename enable_if<__detail::__is_seed_seq<
1326:c:\program files\daisytoolchain\arm-none-eabi\include\c++\10.2.1\bits\random.h **** 	  _Sseq, shuffle_order_engine, result_type>::value>::type;
1327:c:\program files\daisytoolchain\arm-none-eabi\include\c++\10.2.1\bits\random.h **** 
1328:c:\program files\daisytoolchain\arm-none-eabi\include\c++\10.2.1\bits\random.h ****       static constexpr size_t table_size = __k;
1329:c:\program files\daisytoolchain\arm-none-eabi\include\c++\10.2.1\bits\random.h **** 
1330:c:\program files\daisytoolchain\arm-none-eabi\include\c++\10.2.1\bits\random.h ****       /**
1331:c:\program files\daisytoolchain\arm-none-eabi\include\c++\10.2.1\bits\random.h ****        * @brief Constructs a default %shuffle_order_engine engine.
1332:c:\program files\daisytoolchain\arm-none-eabi\include\c++\10.2.1\bits\random.h ****        *
1333:c:\program files\daisytoolchain\arm-none-eabi\include\c++\10.2.1\bits\random.h ****        * The underlying engine is default constructed as well.
1334:c:\program files\daisytoolchain\arm-none-eabi\include\c++\10.2.1\bits\random.h ****        */
1335:c:\program files\daisytoolchain\arm-none-eabi\include\c++\10.2.1\bits\random.h ****       shuffle_order_engine()
1336:c:\program files\daisytoolchain\arm-none-eabi\include\c++\10.2.1\bits\random.h ****       : _M_b()
1337:c:\program files\daisytoolchain\arm-none-eabi\include\c++\10.2.1\bits\random.h ****       { _M_initialize(); }
1338:c:\program files\daisytoolchain\arm-none-eabi\include\c++\10.2.1\bits\random.h **** 
1339:c:\program files\daisytoolchain\arm-none-eabi\include\c++\10.2.1\bits\random.h ****       /**
1340:c:\program files\daisytoolchain\arm-none-eabi\include\c++\10.2.1\bits\random.h ****        * @brief Copy constructs a %shuffle_order_engine engine.
1341:c:\program files\daisytoolchain\arm-none-eabi\include\c++\10.2.1\bits\random.h ****        *
1342:c:\program files\daisytoolchain\arm-none-eabi\include\c++\10.2.1\bits\random.h ****        * Copies an existing base class random number generator.
1343:c:\program files\daisytoolchain\arm-none-eabi\include\c++\10.2.1\bits\random.h ****        * @param __rng An existing (base class) engine object.
1344:c:\program files\daisytoolchain\arm-none-eabi\include\c++\10.2.1\bits\random.h ****        */
1345:c:\program files\daisytoolchain\arm-none-eabi\include\c++\10.2.1\bits\random.h ****       explicit
1346:c:\program files\daisytoolchain\arm-none-eabi\include\c++\10.2.1\bits\random.h ****       shuffle_order_engine(const _RandomNumberEngine& __rng)
1347:c:\program files\daisytoolchain\arm-none-eabi\include\c++\10.2.1\bits\random.h ****       : _M_b(__rng)
1348:c:\program files\daisytoolchain\arm-none-eabi\include\c++\10.2.1\bits\random.h ****       { _M_initialize(); }
1349:c:\program files\daisytoolchain\arm-none-eabi\include\c++\10.2.1\bits\random.h **** 
1350:c:\program files\daisytoolchain\arm-none-eabi\include\c++\10.2.1\bits\random.h ****       /**
1351:c:\program files\daisytoolchain\arm-none-eabi\include\c++\10.2.1\bits\random.h ****        * @brief Move constructs a %shuffle_order_engine engine.
1352:c:\program files\daisytoolchain\arm-none-eabi\include\c++\10.2.1\bits\random.h ****        *
1353:c:\program files\daisytoolchain\arm-none-eabi\include\c++\10.2.1\bits\random.h ****        * Copies an existing base class random number generator.
1354:c:\program files\daisytoolchain\arm-none-eabi\include\c++\10.2.1\bits\random.h ****        * @param __rng An existing (base class) engine object.
1355:c:\program files\daisytoolchain\arm-none-eabi\include\c++\10.2.1\bits\random.h ****        */
1356:c:\program files\daisytoolchain\arm-none-eabi\include\c++\10.2.1\bits\random.h ****       explicit
1357:c:\program files\daisytoolchain\arm-none-eabi\include\c++\10.2.1\bits\random.h ****       shuffle_order_engine(_RandomNumberEngine&& __rng)
1358:c:\program files\daisytoolchain\arm-none-eabi\include\c++\10.2.1\bits\random.h ****       : _M_b(std::move(__rng))
1359:c:\program files\daisytoolchain\arm-none-eabi\include\c++\10.2.1\bits\random.h ****       { _M_initialize(); }
1360:c:\program files\daisytoolchain\arm-none-eabi\include\c++\10.2.1\bits\random.h **** 
1361:c:\program files\daisytoolchain\arm-none-eabi\include\c++\10.2.1\bits\random.h ****       /**
1362:c:\program files\daisytoolchain\arm-none-eabi\include\c++\10.2.1\bits\random.h ****        * @brief Seed constructs a %shuffle_order_engine engine.
1363:c:\program files\daisytoolchain\arm-none-eabi\include\c++\10.2.1\bits\random.h ****        *
1364:c:\program files\daisytoolchain\arm-none-eabi\include\c++\10.2.1\bits\random.h ****        * Constructs the underlying generator engine seeded with @p __s.
1365:c:\program files\daisytoolchain\arm-none-eabi\include\c++\10.2.1\bits\random.h ****        * @param __s A seed value for the base class engine.
1366:c:\program files\daisytoolchain\arm-none-eabi\include\c++\10.2.1\bits\random.h ****        */
1367:c:\program files\daisytoolchain\arm-none-eabi\include\c++\10.2.1\bits\random.h ****       explicit
1368:c:\program files\daisytoolchain\arm-none-eabi\include\c++\10.2.1\bits\random.h ****       shuffle_order_engine(result_type __s)
1369:c:\program files\daisytoolchain\arm-none-eabi\include\c++\10.2.1\bits\random.h ****       : _M_b(__s)
1370:c:\program files\daisytoolchain\arm-none-eabi\include\c++\10.2.1\bits\random.h ****       { _M_initialize(); }
1371:c:\program files\daisytoolchain\arm-none-eabi\include\c++\10.2.1\bits\random.h **** 
1372:c:\program files\daisytoolchain\arm-none-eabi\include\c++\10.2.1\bits\random.h ****       /**
1373:c:\program files\daisytoolchain\arm-none-eabi\include\c++\10.2.1\bits\random.h ****        * @brief Generator construct a %shuffle_order_engine engine.
1374:c:\program files\daisytoolchain\arm-none-eabi\include\c++\10.2.1\bits\random.h ****        *
1375:c:\program files\daisytoolchain\arm-none-eabi\include\c++\10.2.1\bits\random.h ****        * @param __q A seed sequence.
1376:c:\program files\daisytoolchain\arm-none-eabi\include\c++\10.2.1\bits\random.h ****        */
1377:c:\program files\daisytoolchain\arm-none-eabi\include\c++\10.2.1\bits\random.h ****       template<typename _Sseq, typename = _If_seed_seq<_Sseq>>
1378:c:\program files\daisytoolchain\arm-none-eabi\include\c++\10.2.1\bits\random.h ****         explicit
1379:c:\program files\daisytoolchain\arm-none-eabi\include\c++\10.2.1\bits\random.h ****         shuffle_order_engine(_Sseq& __q)
ARM GAS  C:\Users\wuru8\AppData\Local\Temp\cczVuj1W.s 			page 41


1380:c:\program files\daisytoolchain\arm-none-eabi\include\c++\10.2.1\bits\random.h ****         : _M_b(__q)
1381:c:\program files\daisytoolchain\arm-none-eabi\include\c++\10.2.1\bits\random.h ****         { _M_initialize(); }
1382:c:\program files\daisytoolchain\arm-none-eabi\include\c++\10.2.1\bits\random.h **** 
1383:c:\program files\daisytoolchain\arm-none-eabi\include\c++\10.2.1\bits\random.h ****       /**
1384:c:\program files\daisytoolchain\arm-none-eabi\include\c++\10.2.1\bits\random.h ****        * @brief Reseeds the %shuffle_order_engine object with the default seed
1385:c:\program files\daisytoolchain\arm-none-eabi\include\c++\10.2.1\bits\random.h ****                 for the underlying base class generator engine.
1386:c:\program files\daisytoolchain\arm-none-eabi\include\c++\10.2.1\bits\random.h ****        */
1387:c:\program files\daisytoolchain\arm-none-eabi\include\c++\10.2.1\bits\random.h ****       void
1388:c:\program files\daisytoolchain\arm-none-eabi\include\c++\10.2.1\bits\random.h ****       seed()
1389:c:\program files\daisytoolchain\arm-none-eabi\include\c++\10.2.1\bits\random.h ****       {
1390:c:\program files\daisytoolchain\arm-none-eabi\include\c++\10.2.1\bits\random.h **** 	_M_b.seed();
1391:c:\program files\daisytoolchain\arm-none-eabi\include\c++\10.2.1\bits\random.h **** 	_M_initialize();
1392:c:\program files\daisytoolchain\arm-none-eabi\include\c++\10.2.1\bits\random.h ****       }
1393:c:\program files\daisytoolchain\arm-none-eabi\include\c++\10.2.1\bits\random.h **** 
1394:c:\program files\daisytoolchain\arm-none-eabi\include\c++\10.2.1\bits\random.h ****       /**
1395:c:\program files\daisytoolchain\arm-none-eabi\include\c++\10.2.1\bits\random.h ****        * @brief Reseeds the %shuffle_order_engine object with the default seed
1396:c:\program files\daisytoolchain\arm-none-eabi\include\c++\10.2.1\bits\random.h ****        *        for the underlying base class generator engine.
1397:c:\program files\daisytoolchain\arm-none-eabi\include\c++\10.2.1\bits\random.h ****        */
1398:c:\program files\daisytoolchain\arm-none-eabi\include\c++\10.2.1\bits\random.h ****       void
1399:c:\program files\daisytoolchain\arm-none-eabi\include\c++\10.2.1\bits\random.h ****       seed(result_type __s)
1400:c:\program files\daisytoolchain\arm-none-eabi\include\c++\10.2.1\bits\random.h ****       {
1401:c:\program files\daisytoolchain\arm-none-eabi\include\c++\10.2.1\bits\random.h **** 	_M_b.seed(__s);
1402:c:\program files\daisytoolchain\arm-none-eabi\include\c++\10.2.1\bits\random.h **** 	_M_initialize();
1403:c:\program files\daisytoolchain\arm-none-eabi\include\c++\10.2.1\bits\random.h ****       }
1404:c:\program files\daisytoolchain\arm-none-eabi\include\c++\10.2.1\bits\random.h **** 
1405:c:\program files\daisytoolchain\arm-none-eabi\include\c++\10.2.1\bits\random.h ****       /**
1406:c:\program files\daisytoolchain\arm-none-eabi\include\c++\10.2.1\bits\random.h ****        * @brief Reseeds the %shuffle_order_engine object with the given seed
1407:c:\program files\daisytoolchain\arm-none-eabi\include\c++\10.2.1\bits\random.h ****        *        sequence.
1408:c:\program files\daisytoolchain\arm-none-eabi\include\c++\10.2.1\bits\random.h ****        * @param __q A seed generator function.
1409:c:\program files\daisytoolchain\arm-none-eabi\include\c++\10.2.1\bits\random.h ****        */
1410:c:\program files\daisytoolchain\arm-none-eabi\include\c++\10.2.1\bits\random.h ****       template<typename _Sseq>
1411:c:\program files\daisytoolchain\arm-none-eabi\include\c++\10.2.1\bits\random.h ****         _If_seed_seq<_Sseq>
1412:c:\program files\daisytoolchain\arm-none-eabi\include\c++\10.2.1\bits\random.h ****         seed(_Sseq& __q)
1413:c:\program files\daisytoolchain\arm-none-eabi\include\c++\10.2.1\bits\random.h ****         {
1414:c:\program files\daisytoolchain\arm-none-eabi\include\c++\10.2.1\bits\random.h **** 	  _M_b.seed(__q);
1415:c:\program files\daisytoolchain\arm-none-eabi\include\c++\10.2.1\bits\random.h **** 	  _M_initialize();
1416:c:\program files\daisytoolchain\arm-none-eabi\include\c++\10.2.1\bits\random.h **** 	}
1417:c:\program files\daisytoolchain\arm-none-eabi\include\c++\10.2.1\bits\random.h **** 
1418:c:\program files\daisytoolchain\arm-none-eabi\include\c++\10.2.1\bits\random.h ****       /**
1419:c:\program files\daisytoolchain\arm-none-eabi\include\c++\10.2.1\bits\random.h ****        * Gets a const reference to the underlying generator engine object.
1420:c:\program files\daisytoolchain\arm-none-eabi\include\c++\10.2.1\bits\random.h ****        */
1421:c:\program files\daisytoolchain\arm-none-eabi\include\c++\10.2.1\bits\random.h ****       const _RandomNumberEngine&
1422:c:\program files\daisytoolchain\arm-none-eabi\include\c++\10.2.1\bits\random.h ****       base() const noexcept
1423:c:\program files\daisytoolchain\arm-none-eabi\include\c++\10.2.1\bits\random.h ****       { return _M_b; }
1424:c:\program files\daisytoolchain\arm-none-eabi\include\c++\10.2.1\bits\random.h **** 
1425:c:\program files\daisytoolchain\arm-none-eabi\include\c++\10.2.1\bits\random.h ****       /**
1426:c:\program files\daisytoolchain\arm-none-eabi\include\c++\10.2.1\bits\random.h ****        * Gets the minimum value in the generated random number range.
1427:c:\program files\daisytoolchain\arm-none-eabi\include\c++\10.2.1\bits\random.h ****        */
1428:c:\program files\daisytoolchain\arm-none-eabi\include\c++\10.2.1\bits\random.h ****       static constexpr result_type
1429:c:\program files\daisytoolchain\arm-none-eabi\include\c++\10.2.1\bits\random.h ****       min()
1430:c:\program files\daisytoolchain\arm-none-eabi\include\c++\10.2.1\bits\random.h ****       { return _RandomNumberEngine::min(); }
1431:c:\program files\daisytoolchain\arm-none-eabi\include\c++\10.2.1\bits\random.h **** 
1432:c:\program files\daisytoolchain\arm-none-eabi\include\c++\10.2.1\bits\random.h ****       /**
1433:c:\program files\daisytoolchain\arm-none-eabi\include\c++\10.2.1\bits\random.h ****        * Gets the maximum value in the generated random number range.
1434:c:\program files\daisytoolchain\arm-none-eabi\include\c++\10.2.1\bits\random.h ****        */
1435:c:\program files\daisytoolchain\arm-none-eabi\include\c++\10.2.1\bits\random.h ****       static constexpr result_type
1436:c:\program files\daisytoolchain\arm-none-eabi\include\c++\10.2.1\bits\random.h ****       max()
ARM GAS  C:\Users\wuru8\AppData\Local\Temp\cczVuj1W.s 			page 42


1437:c:\program files\daisytoolchain\arm-none-eabi\include\c++\10.2.1\bits\random.h ****       { return _RandomNumberEngine::max(); }
1438:c:\program files\daisytoolchain\arm-none-eabi\include\c++\10.2.1\bits\random.h **** 
1439:c:\program files\daisytoolchain\arm-none-eabi\include\c++\10.2.1\bits\random.h ****       /**
1440:c:\program files\daisytoolchain\arm-none-eabi\include\c++\10.2.1\bits\random.h ****        * Discard a sequence of random numbers.
1441:c:\program files\daisytoolchain\arm-none-eabi\include\c++\10.2.1\bits\random.h ****        */
1442:c:\program files\daisytoolchain\arm-none-eabi\include\c++\10.2.1\bits\random.h ****       void
1443:c:\program files\daisytoolchain\arm-none-eabi\include\c++\10.2.1\bits\random.h ****       discard(unsigned long long __z)
1444:c:\program files\daisytoolchain\arm-none-eabi\include\c++\10.2.1\bits\random.h ****       {
1445:c:\program files\daisytoolchain\arm-none-eabi\include\c++\10.2.1\bits\random.h **** 	for (; __z != 0ULL; --__z)
1446:c:\program files\daisytoolchain\arm-none-eabi\include\c++\10.2.1\bits\random.h **** 	  (*this)();
1447:c:\program files\daisytoolchain\arm-none-eabi\include\c++\10.2.1\bits\random.h ****       }
1448:c:\program files\daisytoolchain\arm-none-eabi\include\c++\10.2.1\bits\random.h **** 
1449:c:\program files\daisytoolchain\arm-none-eabi\include\c++\10.2.1\bits\random.h ****       /**
1450:c:\program files\daisytoolchain\arm-none-eabi\include\c++\10.2.1\bits\random.h ****        * Gets the next value in the generated random number sequence.
1451:c:\program files\daisytoolchain\arm-none-eabi\include\c++\10.2.1\bits\random.h ****        */
1452:c:\program files\daisytoolchain\arm-none-eabi\include\c++\10.2.1\bits\random.h ****       result_type
1453:c:\program files\daisytoolchain\arm-none-eabi\include\c++\10.2.1\bits\random.h ****       operator()();
1454:c:\program files\daisytoolchain\arm-none-eabi\include\c++\10.2.1\bits\random.h **** 
1455:c:\program files\daisytoolchain\arm-none-eabi\include\c++\10.2.1\bits\random.h ****       /**
1456:c:\program files\daisytoolchain\arm-none-eabi\include\c++\10.2.1\bits\random.h ****        * Compares two %shuffle_order_engine random number generator objects
1457:c:\program files\daisytoolchain\arm-none-eabi\include\c++\10.2.1\bits\random.h ****        * of the same type for equality.
1458:c:\program files\daisytoolchain\arm-none-eabi\include\c++\10.2.1\bits\random.h ****        *
1459:c:\program files\daisytoolchain\arm-none-eabi\include\c++\10.2.1\bits\random.h ****        * @param __lhs A %shuffle_order_engine random number generator object.
1460:c:\program files\daisytoolchain\arm-none-eabi\include\c++\10.2.1\bits\random.h ****        * @param __rhs Another %shuffle_order_engine random number generator
1461:c:\program files\daisytoolchain\arm-none-eabi\include\c++\10.2.1\bits\random.h ****        *              object.
1462:c:\program files\daisytoolchain\arm-none-eabi\include\c++\10.2.1\bits\random.h ****        *
1463:c:\program files\daisytoolchain\arm-none-eabi\include\c++\10.2.1\bits\random.h ****        * @returns true if the infinite sequences of generated values
1464:c:\program files\daisytoolchain\arm-none-eabi\include\c++\10.2.1\bits\random.h ****        *          would be equal, false otherwise.
1465:c:\program files\daisytoolchain\arm-none-eabi\include\c++\10.2.1\bits\random.h ****       */
1466:c:\program files\daisytoolchain\arm-none-eabi\include\c++\10.2.1\bits\random.h ****       friend bool
1467:c:\program files\daisytoolchain\arm-none-eabi\include\c++\10.2.1\bits\random.h ****       operator==(const shuffle_order_engine& __lhs,
1468:c:\program files\daisytoolchain\arm-none-eabi\include\c++\10.2.1\bits\random.h **** 		 const shuffle_order_engine& __rhs)
1469:c:\program files\daisytoolchain\arm-none-eabi\include\c++\10.2.1\bits\random.h ****       { return (__lhs._M_b == __rhs._M_b
1470:c:\program files\daisytoolchain\arm-none-eabi\include\c++\10.2.1\bits\random.h **** 		&& std::equal(__lhs._M_v, __lhs._M_v + __k, __rhs._M_v)
1471:c:\program files\daisytoolchain\arm-none-eabi\include\c++\10.2.1\bits\random.h **** 		&& __lhs._M_y == __rhs._M_y); }
1472:c:\program files\daisytoolchain\arm-none-eabi\include\c++\10.2.1\bits\random.h **** 
1473:c:\program files\daisytoolchain\arm-none-eabi\include\c++\10.2.1\bits\random.h ****       /**
1474:c:\program files\daisytoolchain\arm-none-eabi\include\c++\10.2.1\bits\random.h ****        * @brief Inserts the current state of a %shuffle_order_engine random
1475:c:\program files\daisytoolchain\arm-none-eabi\include\c++\10.2.1\bits\random.h ****        *        number generator engine @p __x into the output stream
1476:c:\program files\daisytoolchain\arm-none-eabi\include\c++\10.2.1\bits\random.h **** 	@p __os.
1477:c:\program files\daisytoolchain\arm-none-eabi\include\c++\10.2.1\bits\random.h ****        *
1478:c:\program files\daisytoolchain\arm-none-eabi\include\c++\10.2.1\bits\random.h ****        * @param __os An output stream.
1479:c:\program files\daisytoolchain\arm-none-eabi\include\c++\10.2.1\bits\random.h ****        * @param __x  A %shuffle_order_engine random number generator engine.
1480:c:\program files\daisytoolchain\arm-none-eabi\include\c++\10.2.1\bits\random.h ****        *
1481:c:\program files\daisytoolchain\arm-none-eabi\include\c++\10.2.1\bits\random.h ****        * @returns The output stream with the state of @p __x inserted or in
1482:c:\program files\daisytoolchain\arm-none-eabi\include\c++\10.2.1\bits\random.h ****        * an error state.
1483:c:\program files\daisytoolchain\arm-none-eabi\include\c++\10.2.1\bits\random.h ****        */
1484:c:\program files\daisytoolchain\arm-none-eabi\include\c++\10.2.1\bits\random.h ****       template<typename _RandomNumberEngine1, size_t __k1,
1485:c:\program files\daisytoolchain\arm-none-eabi\include\c++\10.2.1\bits\random.h **** 	       typename _CharT, typename _Traits>
1486:c:\program files\daisytoolchain\arm-none-eabi\include\c++\10.2.1\bits\random.h **** 	friend std::basic_ostream<_CharT, _Traits>&
1487:c:\program files\daisytoolchain\arm-none-eabi\include\c++\10.2.1\bits\random.h **** 	operator<<(std::basic_ostream<_CharT, _Traits>& __os,
1488:c:\program files\daisytoolchain\arm-none-eabi\include\c++\10.2.1\bits\random.h **** 		   const std::shuffle_order_engine<_RandomNumberEngine1,
1489:c:\program files\daisytoolchain\arm-none-eabi\include\c++\10.2.1\bits\random.h **** 		   __k1>& __x);
1490:c:\program files\daisytoolchain\arm-none-eabi\include\c++\10.2.1\bits\random.h **** 
1491:c:\program files\daisytoolchain\arm-none-eabi\include\c++\10.2.1\bits\random.h ****       /**
1492:c:\program files\daisytoolchain\arm-none-eabi\include\c++\10.2.1\bits\random.h ****        * @brief Extracts the current state of a % subtract_with_carry_engine
1493:c:\program files\daisytoolchain\arm-none-eabi\include\c++\10.2.1\bits\random.h ****        *        random number generator engine @p __x from the input stream
ARM GAS  C:\Users\wuru8\AppData\Local\Temp\cczVuj1W.s 			page 43


1494:c:\program files\daisytoolchain\arm-none-eabi\include\c++\10.2.1\bits\random.h ****        *        @p __is.
1495:c:\program files\daisytoolchain\arm-none-eabi\include\c++\10.2.1\bits\random.h ****        *
1496:c:\program files\daisytoolchain\arm-none-eabi\include\c++\10.2.1\bits\random.h ****        * @param __is An input stream.
1497:c:\program files\daisytoolchain\arm-none-eabi\include\c++\10.2.1\bits\random.h ****        * @param __x  A %shuffle_order_engine random number generator engine.
1498:c:\program files\daisytoolchain\arm-none-eabi\include\c++\10.2.1\bits\random.h ****        *
1499:c:\program files\daisytoolchain\arm-none-eabi\include\c++\10.2.1\bits\random.h ****        * @returns The input stream with the state of @p __x extracted or in
1500:c:\program files\daisytoolchain\arm-none-eabi\include\c++\10.2.1\bits\random.h ****        * an error state.
1501:c:\program files\daisytoolchain\arm-none-eabi\include\c++\10.2.1\bits\random.h ****        */
1502:c:\program files\daisytoolchain\arm-none-eabi\include\c++\10.2.1\bits\random.h ****       template<typename _RandomNumberEngine1, size_t __k1,
1503:c:\program files\daisytoolchain\arm-none-eabi\include\c++\10.2.1\bits\random.h **** 	       typename _CharT, typename _Traits>
1504:c:\program files\daisytoolchain\arm-none-eabi\include\c++\10.2.1\bits\random.h **** 	friend std::basic_istream<_CharT, _Traits>&
1505:c:\program files\daisytoolchain\arm-none-eabi\include\c++\10.2.1\bits\random.h **** 	operator>>(std::basic_istream<_CharT, _Traits>& __is,
1506:c:\program files\daisytoolchain\arm-none-eabi\include\c++\10.2.1\bits\random.h **** 		   std::shuffle_order_engine<_RandomNumberEngine1, __k1>& __x);
1507:c:\program files\daisytoolchain\arm-none-eabi\include\c++\10.2.1\bits\random.h **** 
1508:c:\program files\daisytoolchain\arm-none-eabi\include\c++\10.2.1\bits\random.h ****     private:
1509:c:\program files\daisytoolchain\arm-none-eabi\include\c++\10.2.1\bits\random.h ****       void _M_initialize()
1510:c:\program files\daisytoolchain\arm-none-eabi\include\c++\10.2.1\bits\random.h ****       {
1511:c:\program files\daisytoolchain\arm-none-eabi\include\c++\10.2.1\bits\random.h **** 	for (size_t __i = 0; __i < __k; ++__i)
1512:c:\program files\daisytoolchain\arm-none-eabi\include\c++\10.2.1\bits\random.h **** 	  _M_v[__i] = _M_b();
1513:c:\program files\daisytoolchain\arm-none-eabi\include\c++\10.2.1\bits\random.h **** 	_M_y = _M_b();
1514:c:\program files\daisytoolchain\arm-none-eabi\include\c++\10.2.1\bits\random.h ****       }
1515:c:\program files\daisytoolchain\arm-none-eabi\include\c++\10.2.1\bits\random.h **** 
1516:c:\program files\daisytoolchain\arm-none-eabi\include\c++\10.2.1\bits\random.h ****       _RandomNumberEngine _M_b;
1517:c:\program files\daisytoolchain\arm-none-eabi\include\c++\10.2.1\bits\random.h ****       result_type _M_v[__k];
1518:c:\program files\daisytoolchain\arm-none-eabi\include\c++\10.2.1\bits\random.h ****       result_type _M_y;
1519:c:\program files\daisytoolchain\arm-none-eabi\include\c++\10.2.1\bits\random.h ****     };
1520:c:\program files\daisytoolchain\arm-none-eabi\include\c++\10.2.1\bits\random.h **** 
1521:c:\program files\daisytoolchain\arm-none-eabi\include\c++\10.2.1\bits\random.h ****   /**
1522:c:\program files\daisytoolchain\arm-none-eabi\include\c++\10.2.1\bits\random.h ****    * Compares two %shuffle_order_engine random number generator objects
1523:c:\program files\daisytoolchain\arm-none-eabi\include\c++\10.2.1\bits\random.h ****    * of the same type for inequality.
1524:c:\program files\daisytoolchain\arm-none-eabi\include\c++\10.2.1\bits\random.h ****    *
1525:c:\program files\daisytoolchain\arm-none-eabi\include\c++\10.2.1\bits\random.h ****    * @param __lhs A %shuffle_order_engine random number generator object.
1526:c:\program files\daisytoolchain\arm-none-eabi\include\c++\10.2.1\bits\random.h ****    * @param __rhs Another %shuffle_order_engine random number generator
1527:c:\program files\daisytoolchain\arm-none-eabi\include\c++\10.2.1\bits\random.h ****    *              object.
1528:c:\program files\daisytoolchain\arm-none-eabi\include\c++\10.2.1\bits\random.h ****    *
1529:c:\program files\daisytoolchain\arm-none-eabi\include\c++\10.2.1\bits\random.h ****    * @returns true if the infinite sequences of generated values
1530:c:\program files\daisytoolchain\arm-none-eabi\include\c++\10.2.1\bits\random.h ****    *          would be different, false otherwise.
1531:c:\program files\daisytoolchain\arm-none-eabi\include\c++\10.2.1\bits\random.h ****    */
1532:c:\program files\daisytoolchain\arm-none-eabi\include\c++\10.2.1\bits\random.h ****   template<typename _RandomNumberEngine, size_t __k>
1533:c:\program files\daisytoolchain\arm-none-eabi\include\c++\10.2.1\bits\random.h ****     inline bool
1534:c:\program files\daisytoolchain\arm-none-eabi\include\c++\10.2.1\bits\random.h ****     operator!=(const std::shuffle_order_engine<_RandomNumberEngine,
1535:c:\program files\daisytoolchain\arm-none-eabi\include\c++\10.2.1\bits\random.h **** 	       __k>& __lhs,
1536:c:\program files\daisytoolchain\arm-none-eabi\include\c++\10.2.1\bits\random.h **** 	       const std::shuffle_order_engine<_RandomNumberEngine,
1537:c:\program files\daisytoolchain\arm-none-eabi\include\c++\10.2.1\bits\random.h **** 	       __k>& __rhs)
1538:c:\program files\daisytoolchain\arm-none-eabi\include\c++\10.2.1\bits\random.h ****     { return !(__lhs == __rhs); }
1539:c:\program files\daisytoolchain\arm-none-eabi\include\c++\10.2.1\bits\random.h **** 
1540:c:\program files\daisytoolchain\arm-none-eabi\include\c++\10.2.1\bits\random.h **** 
1541:c:\program files\daisytoolchain\arm-none-eabi\include\c++\10.2.1\bits\random.h ****   /**
1542:c:\program files\daisytoolchain\arm-none-eabi\include\c++\10.2.1\bits\random.h ****    * The classic Minimum Standard rand0 of Lewis, Goodman, and Miller.
1543:c:\program files\daisytoolchain\arm-none-eabi\include\c++\10.2.1\bits\random.h ****    */
1544:c:\program files\daisytoolchain\arm-none-eabi\include\c++\10.2.1\bits\random.h ****   typedef linear_congruential_engine<uint_fast32_t, 16807UL, 0UL, 2147483647UL>
1545:c:\program files\daisytoolchain\arm-none-eabi\include\c++\10.2.1\bits\random.h ****   minstd_rand0;
1546:c:\program files\daisytoolchain\arm-none-eabi\include\c++\10.2.1\bits\random.h **** 
1547:c:\program files\daisytoolchain\arm-none-eabi\include\c++\10.2.1\bits\random.h ****   /**
1548:c:\program files\daisytoolchain\arm-none-eabi\include\c++\10.2.1\bits\random.h ****    * An alternative LCR (Lehmer Generator function).
1549:c:\program files\daisytoolchain\arm-none-eabi\include\c++\10.2.1\bits\random.h ****    */
1550:c:\program files\daisytoolchain\arm-none-eabi\include\c++\10.2.1\bits\random.h ****   typedef linear_congruential_engine<uint_fast32_t, 48271UL, 0UL, 2147483647UL>
ARM GAS  C:\Users\wuru8\AppData\Local\Temp\cczVuj1W.s 			page 44


1551:c:\program files\daisytoolchain\arm-none-eabi\include\c++\10.2.1\bits\random.h ****   minstd_rand;
1552:c:\program files\daisytoolchain\arm-none-eabi\include\c++\10.2.1\bits\random.h **** 
1553:c:\program files\daisytoolchain\arm-none-eabi\include\c++\10.2.1\bits\random.h ****   /**
1554:c:\program files\daisytoolchain\arm-none-eabi\include\c++\10.2.1\bits\random.h ****    * The classic Mersenne Twister.
1555:c:\program files\daisytoolchain\arm-none-eabi\include\c++\10.2.1\bits\random.h ****    *
1556:c:\program files\daisytoolchain\arm-none-eabi\include\c++\10.2.1\bits\random.h ****    * Reference:
1557:c:\program files\daisytoolchain\arm-none-eabi\include\c++\10.2.1\bits\random.h ****    * M. Matsumoto and T. Nishimura, Mersenne Twister: A 623-Dimensionally
1558:c:\program files\daisytoolchain\arm-none-eabi\include\c++\10.2.1\bits\random.h ****    * Equidistributed Uniform Pseudo-Random Number Generator, ACM Transactions
1559:c:\program files\daisytoolchain\arm-none-eabi\include\c++\10.2.1\bits\random.h ****    * on Modeling and Computer Simulation, Vol. 8, No. 1, January 1998, pp 3-30.
1560:c:\program files\daisytoolchain\arm-none-eabi\include\c++\10.2.1\bits\random.h ****    */
1561:c:\program files\daisytoolchain\arm-none-eabi\include\c++\10.2.1\bits\random.h ****   typedef mersenne_twister_engine<
1562:c:\program files\daisytoolchain\arm-none-eabi\include\c++\10.2.1\bits\random.h ****     uint_fast32_t,
1563:c:\program files\daisytoolchain\arm-none-eabi\include\c++\10.2.1\bits\random.h ****     32, 624, 397, 31,
1564:c:\program files\daisytoolchain\arm-none-eabi\include\c++\10.2.1\bits\random.h ****     0x9908b0dfUL, 11,
1565:c:\program files\daisytoolchain\arm-none-eabi\include\c++\10.2.1\bits\random.h ****     0xffffffffUL, 7,
1566:c:\program files\daisytoolchain\arm-none-eabi\include\c++\10.2.1\bits\random.h ****     0x9d2c5680UL, 15,
1567:c:\program files\daisytoolchain\arm-none-eabi\include\c++\10.2.1\bits\random.h ****     0xefc60000UL, 18, 1812433253UL> mt19937;
1568:c:\program files\daisytoolchain\arm-none-eabi\include\c++\10.2.1\bits\random.h **** 
1569:c:\program files\daisytoolchain\arm-none-eabi\include\c++\10.2.1\bits\random.h ****   /**
1570:c:\program files\daisytoolchain\arm-none-eabi\include\c++\10.2.1\bits\random.h ****    * An alternative Mersenne Twister.
1571:c:\program files\daisytoolchain\arm-none-eabi\include\c++\10.2.1\bits\random.h ****    */
1572:c:\program files\daisytoolchain\arm-none-eabi\include\c++\10.2.1\bits\random.h ****   typedef mersenne_twister_engine<
1573:c:\program files\daisytoolchain\arm-none-eabi\include\c++\10.2.1\bits\random.h ****     uint_fast64_t,
1574:c:\program files\daisytoolchain\arm-none-eabi\include\c++\10.2.1\bits\random.h ****     64, 312, 156, 31,
1575:c:\program files\daisytoolchain\arm-none-eabi\include\c++\10.2.1\bits\random.h ****     0xb5026f5aa96619e9ULL, 29,
1576:c:\program files\daisytoolchain\arm-none-eabi\include\c++\10.2.1\bits\random.h ****     0x5555555555555555ULL, 17,
1577:c:\program files\daisytoolchain\arm-none-eabi\include\c++\10.2.1\bits\random.h ****     0x71d67fffeda60000ULL, 37,
1578:c:\program files\daisytoolchain\arm-none-eabi\include\c++\10.2.1\bits\random.h ****     0xfff7eee000000000ULL, 43,
1579:c:\program files\daisytoolchain\arm-none-eabi\include\c++\10.2.1\bits\random.h ****     6364136223846793005ULL> mt19937_64;
1580:c:\program files\daisytoolchain\arm-none-eabi\include\c++\10.2.1\bits\random.h **** 
1581:c:\program files\daisytoolchain\arm-none-eabi\include\c++\10.2.1\bits\random.h ****   typedef subtract_with_carry_engine<uint_fast32_t, 24, 10, 24>
1582:c:\program files\daisytoolchain\arm-none-eabi\include\c++\10.2.1\bits\random.h ****     ranlux24_base;
1583:c:\program files\daisytoolchain\arm-none-eabi\include\c++\10.2.1\bits\random.h **** 
1584:c:\program files\daisytoolchain\arm-none-eabi\include\c++\10.2.1\bits\random.h ****   typedef subtract_with_carry_engine<uint_fast64_t, 48, 5, 12>
1585:c:\program files\daisytoolchain\arm-none-eabi\include\c++\10.2.1\bits\random.h ****     ranlux48_base;
1586:c:\program files\daisytoolchain\arm-none-eabi\include\c++\10.2.1\bits\random.h **** 
1587:c:\program files\daisytoolchain\arm-none-eabi\include\c++\10.2.1\bits\random.h ****   typedef discard_block_engine<ranlux24_base, 223, 23> ranlux24;
1588:c:\program files\daisytoolchain\arm-none-eabi\include\c++\10.2.1\bits\random.h **** 
